
dcd6f10e-c128-4df6-8314-e9d86e3c6fd3.elf:     file format elf32-littlearm
dcd6f10e-c128-4df6-8314-e9d86e3c6fd3.elf
architecture: arm, flags 0x00000150:
HAS_SYMS, DYNAMIC, D_PAGED
start address 0x00000020

Program Header:
0x70000001 off    0x00021c9c vaddr 0x00011c9c paddr 0x00011c9c align 2**2
         filesz 0x00000a50 memsz 0x00000a50 flags r--
    LOAD off    0x00010000 vaddr 0x00000000 paddr 0x00000000 align 2**16
         filesz 0x0000f354 memsz 0x0000f354 flags r-x
    LOAD off    0x0001f354 vaddr 0x0000f354 paddr 0x0000f354 align 2**16
         filesz 0x000036ec memsz 0x000036ec flags r--
    LOAD off    0x00023000 vaddr 0x00013000 paddr 0x00013000 align 2**16
         filesz 0x000000e4 memsz 0x0000aca0 flags rw-
 DYNAMIC off    0x0002282c vaddr 0x0001282c paddr 0x0001282c align 2**2
         filesz 0x00000080 memsz 0x00000080 flags rw-

Dynamic Section:
  HASH                 0x000129fc
  STRTAB               0x0001296c
  SYMTAB               0x000128ac
  STRSZ                0x0000008e
  SYMENT               0x00000010
  DEBUG                0x00000000
  REL                  0x0001271c
  RELSZ                0x00000110
  RELENT               0x00000008
  FLAGS_1              0x08000000
  RELCOUNT             0x00000019
private flags = 5000400: [Version5 EABI] [hard-float ABI]

Sections:
Idx Name          Size      VMA       LMA       File off  Algn
  0 .ta_head      00000020  00000000  00000000  00010000  2**3
                  CONTENTS, ALLOC, LOAD, DATA
  1 .text         0000f334  00000020  00000020  00010020  2**2
                  CONTENTS, ALLOC, LOAD, READONLY, CODE
  2 .rodata       00001b4c  0000f354  0000f354  0001f354  2**2
                  CONTENTS, ALLOC, LOAD, READONLY, DATA
  3 .ARM.extab    00000de4  00010ea0  00010ea0  00020ea0  2**2
                  CONTENTS, ALLOC, LOAD, READONLY, DATA
  4 .ARM.extab.text.__aeabi_ldivmod 0000000c  00011c84  00011c84  00021c84  2**2
                  CONTENTS, ALLOC, LOAD, READONLY, DATA
  5 .ARM.extab.text.__aeabi_uldivmod 0000000c  00011c90  00011c90  00021c90  2**2
                  CONTENTS, ALLOC, LOAD, READONLY, DATA
  6 .ARM.exidx    00000a50  00011c9c  00011c9c  00021c9c  2**2
                  CONTENTS, ALLOC, LOAD, READONLY, DATA
  7 .got          00000030  000126ec  000126ec  000226ec  2**2
                  CONTENTS, ALLOC, LOAD, DATA
  8 .dynsym       000000c0  000128ac  000128ac  000228ac  2**2
                  CONTENTS, ALLOC, LOAD, READONLY, DATA
  9 .rel.got      00000048  000127e4  000127e4  000227e4  2**2
                  CONTENTS, ALLOC, LOAD, READONLY, DATA
 10 .dynamic      00000080  0001282c  0001282c  0002282c  2**2
                  CONTENTS, ALLOC, LOAD, DATA
 11 .dynstr       0000008e  0001296c  0001296c  0002296c  2**0
                  CONTENTS, ALLOC, LOAD, READONLY, DATA
 12 .hash         00000044  000129fc  000129fc  000229fc  2**2
                  CONTENTS, ALLOC, LOAD, READONLY, DATA
 13 .data         000000e4  00013000  00013000  00023000  2**2
                  CONTENTS, ALLOC, LOAD, DATA
 14 .bss          0000abbc  000130e4  000130e4  000230e4  2**2
                  ALLOC
 15 .debug_info   0000c684  00000000  00000000  000230e4  2**0
                  CONTENTS, READONLY, DEBUGGING
 16 .debug_abbrev 00003417  00000000  00000000  0002f768  2**0
                  CONTENTS, READONLY, DEBUGGING
 17 .debug_aranges 00000588  00000000  00000000  00032b80  2**3
                  CONTENTS, READONLY, DEBUGGING
 18 .debug_macro  00005c23  00000000  00000000  00033108  2**0
                  CONTENTS, READONLY, DEBUGGING
 19 .debug_line   0000729a  00000000  00000000  00038d2b  2**0
                  CONTENTS, READONLY, DEBUGGING
 20 .debug_str    000111fa  00000000  00000000  0003ffc5  2**0
                  CONTENTS, READONLY, DEBUGGING
 21 .comment      0000002d  00000000  00000000  000511bf  2**0
                  CONTENTS, READONLY
 22 .ARM.attributes 00000038  00000000  00000000  000511ec  2**0
                  CONTENTS, READONLY
 23 .debug_frame  000034c8  00000000  00000000  00051224  2**2
                  CONTENTS, READONLY, DEBUGGING
 24 .rel.dyn      000000c8  0001271c  0001271c  0002271c  2**2
                  CONTENTS, ALLOC, LOAD, READONLY, DATA
 25 .debug_ranges 00000038  00000000  00000000  000546f0  2**3
                  CONTENTS, READONLY, DEBUGGING
SYMBOL TABLE:
00000000 l    d  .ta_head	00000000 .ta_head
00000020 l    d  .text	00000000 .text
0000f354 l    d  .rodata	00000000 .rodata
00010ea0 l    d  .ARM.extab	00000000 .ARM.extab
00011c84 l    d  .ARM.extab.text.__aeabi_ldivmod	00000000 .ARM.extab.text.__aeabi_ldivmod
00011c90 l    d  .ARM.extab.text.__aeabi_uldivmod	00000000 .ARM.extab.text.__aeabi_uldivmod
00011c9c l    d  .ARM.exidx	00000000 .ARM.exidx
000126ec l    d  .got	00000000 .got
000127e4 l    d  .rel.got	00000000 .rel.got
0001282c l    d  .dynamic	00000000 .dynamic
000128ac l    d  .dynsym	00000000 .dynsym
0001296c l    d  .dynstr	00000000 .dynstr
000129fc l    d  .hash	00000000 .hash
00013000 l    d  .data	00000000 .data
000130e4 l    d  .bss	00000000 .bss
00000000 l    d  .debug_info	00000000 .debug_info
00000000 l    d  .debug_abbrev	00000000 .debug_abbrev
00000000 l    d  .debug_aranges	00000000 .debug_aranges
00000000 l    d  .debug_macro	00000000 .debug_macro
00000000 l    d  .debug_line	00000000 .debug_line
00000000 l    d  .debug_str	00000000 .debug_str
00000000 l    d  .comment	00000000 .comment
00000000 l    d  .ARM.attributes	00000000 .ARM.attributes
00000000 l    d  .debug_frame	00000000 .debug_frame
0001271c l    d  .rel.dyn	00000000 .rel.dyn
00000000 l    d  .debug_ranges	00000000 .debug_ranges
00000000 l    df *ABS*	00000000 user_ta_header.c
0000f834 l     O .rodata	00000001 __compound_literal.0
0000f835 l     O .rodata	00000001 __compound_literal.1
0000f836 l     O .rodata	00000001 __compound_literal.2
0000f838 l     O .rodata	00000004 __compound_literal.3
0000f83c l     O .rodata	00000004 __compound_literal.4
0000f840 l     O .rodata	00000004 __compound_literal.5
00000000 l    df *ABS*	00000000 hello_aes_ta.c
000130e4 l     O .bss	00000004 cipher
000130e8 l     O .bss	00000004 decipher
000130ec l     O .bss	00000010 key
000130fc l     O .bss	00000010 iv
00013000 l     O .data	00000041 objID
00013044 l     O .data	00000004 objID_len
0000f744 l     O .rodata	00000014 __func__.6218
00000054 l     F .text	0000003a myStrlen
0000008e l     F .text	00000044 myMemcpy
0000f758 l     O .rodata	00000015 __func__.6238
0000f770 l     O .rodata	00000019 __func__.6245
0000f78c l     O .rodata	0000001a __func__.6249
000001b4 l     F .text	00000040 myMemset
0000f7a8 l     O .rodata	0000000f __func__.6268
0000f7b8 l     O .rodata	0000001e __func__.6276
0000f7d8 l     O .rodata	0000000d __func__.6288
00000608 l     F .text	00000350 aes_init
0000f7e8 l     O .rodata	00000009 __func__.6305
00000958 l     F .text	00000498 aes_encrypt
0000f7f4 l     O .rodata	0000000c __func__.6332
00000df0 l     F .text	000005e4 aes_decrypt
0000f800 l     O .rodata	0000000c __func__.6348
0000f80c l     O .rodata	0000001b __func__.6359
00000000 l    df *ABS*	00000000 tee_api.c
0000f93c l     O .rodata	00000004 DEFAULT_TEE_MALLOC_HINT
0001b10c l     O .bss	00000004 tee_api_instance_data
00000000 l    df *ABS*	00000000 tee_api_operations.c
00002c24 l     F .text	00000048 init_hash_operation
00002e20 l     F .text	00000310 tee_buffer_update
00000000 l    df *ABS*	00000000 user_ta_entry.c
000046a4 l     F .text	00000010 __utee_gprof_init
000046b4 l     F .text	00000010 __utee_gprof_fini
000130bc l     O .data	00000008 ta_sessions
0001b134 l     O .bss	00000004 ta_ref_count
0001b138 l     O .bss	00000001 context_init
000046c4 l     F .text	00000058 ta_header_save_params
0000471c l     F .text	00000044 ta_header_get_session
00004760 l     F .text	00000128 ta_header_add_session
00004888 l     F .text	0000009c ta_header_remove_session
00004924 l     F .text	0000008e entry_open_session
000049b2 l     F .text	00000040 entry_close_session
000049f2 l     F .text	00000070 entry_invoke_command
00000000 l    df *ABS*	00000000 utee_syscalls_a32.o
00000000 l    df *ABS*	00000000 gprof_a32.o
00000000 l    df *ABS*	00000000 tee_user_mem.c
0000f940 l     O .rodata	00000004 DEFAULT_TEE_MALLOC_HINT
000130c4 l     O .data	00000004 ARTIST
0000f944 l     O .rodata	00000004 CANARY_LINE_SIZE
000050b8 l     F .text	0000001e buf_addr
000050d6 l     F .text	00000028 buf_size
000050fe l     F .text	0000001e elem_addr
0000511c l     F .text	00000048 is_buffer_valid
00005164 l     F .text	00000068 print_buf
0001b13c l     O .bss	00000004 heap_level
0001b140 l     O .bss	00000008 global_stats
000051cc l     F .text	00000060 heap_inc
0000522c l     F .text	00000064 heap_dec
00005290 l     F .text	00000064 check_elem_end
0000fa44 l     O .rodata	0000000f __func__.6246
000052f4 l     F .text	000000dc check_elem
0000fa54 l     O .rodata	0000000b __func__.6251
000053d0 l     F .text	00000060 is_mem_coherent
0000fa60 l     O .rodata	00000010 __func__.6256
0000fa70 l     O .rodata	00000013 __func__.6271
0000fa84 l     O .rodata	00000012 __func__.6288
0000fa98 l     O .rodata	00000018 __func__.6296
000057c8 l     F .text	00000068 tee_user_mem_status
0000fab0 l     O .rodata	00000014 __func__.6301
00000000 l    df *ABS*	00000000 assert.c
00000000 l    df *ABS*	00000000 tee_api_arith.c
0001b148 l     O .bss	00001b00 mempool_u32
000130d0 l     O .data	00000004 mempool
000058c8 l     F .text	00000028 TEE_BigInt_Panic
00000000 l    df *ABS*	00000000 trace_ext.c
00000000 l    df *ABS*	00000000 bget_malloc.c
000063bc l     F .text	00000014 malloc_lock
000063d0 l     F .text	00000018 malloc_unlock
000063e8 l     F .text	0000001a tag_asan_free
00006402 l     F .text	0000001a tag_asan_alloced
0000641c l     F .text	00000024 memset_unchecked
000130d4 l     O .data	00000010 freelist
0001cc48 l     O .bss	00000004 totalloc
0001cc4c l     O .bss	00000004 numget
0001cc50 l     O .bss	00000004 numrel
0000ff54 l     O .rodata	00000005 __func__.5667
0000ff5c l     O .rodata	00000006 __func__.5681
0000ff64 l     O .rodata	00000006 __func__.5689
0000ff6c l     O .rodata	00000005 __func__.5696
0000ff74 l     O .rodata	00000006 __func__.5704
0000ff7c l     O .rodata	00000007 __func__.5713
0001cc54 l     O .bss	00000004 malloc_pool
0001cc58 l     O .bss	00000004 malloc_pool_len
0001cc5c l     O .bss	00000038 mstats
00006d18 l     F .text	0000009c raw_malloc_return_hook
00006e58 l     F .text	00000010 raw_malloc_validate_pools
00006e68 l     F .text	00000030 bpool_foreach_iterator_init
00006e98 l     F .text	000000d8 bpool_foreach_pool
0000ff84 l     O .rodata	00000013 __func__.5752
00006f70 l     F .text	00000080 bpool_foreach
00006ff0 l     F .text	0000005e raw_malloc
0000704e l     F .text	00000024 raw_free
00007072 l     F .text	00000070 raw_calloc
000070e2 l     F .text	00000060 raw_realloc
00007142 l     F .text	0000015e create_free_block
0000ff98 l     O .rodata	00000012 __func__.5799
000072a0 l     F .text	0000015c brel_before
0000ffac l     O .rodata	0000000c __func__.5808
000073fc l     F .text	00000220 brel_after
0000ffb8 l     O .rodata	0000000b __func__.5818
0000761c l     F .text	00000148 raw_memalign
0000ffc4 l     O .rodata	0000000d __func__.5832
00007764 l     F .text	0000005c bget_buf_size
0000ffd4 l     O .rodata	0000000e __func__.5838
0000784e l     F .text	00000028 realloc_unlocked
000078da l     F .text	00000026 get_payload_start_size
0000ffe4 l     O .rodata	00000010 __func__.5884
00000000 l    df *ABS*	00000000 snprintk.c
0000fff4 l     O .rodata	00000011 hexdigits
00010008 l     O .rodata	00000011 HEXDIGITS
00007d5c l     F .text	00000df4 kprintf
00007cbe l     F .text	0000009e uuid2str
00000000 l    df *ABS*	00000000 trace.c
00008bbc l     F .text	0000005c trace_level_to_string
0001009c l     O .rodata	0000002d lvl_strs.5538
00000000 l    df *ABS*	00000000 arm32_aeabi_ldivmod_a32.o
00000000 l    df *ABS*	00000000 mpa_misc.c
00000000 l    df *ABS*	00000000 mpa_montgomery.c
00000000 l    df *ABS*	00000000 mpa_primetest.c
00010d34 l     O .rodata	000000b8 const_small_prime_factors
00010dec l     O .rodata	00000010 const_miller_rabin_proof_limit
00010dfc l     O .rodata	0000000c const_two
00009724 l     F .text	0000009a is_small_prime
000097be l     F .text	00000062 has_small_factors
00009820 l     F .text	000002c4 primality_test_miller_rabin
000096ea l     F .text	0000003a check_table
00010e08 l     O .rodata	0000001c proof_a.5919
00000000 l    df *ABS*	00000000 mpa_random.c
0001cc94 l     O .bss	00000004 get_rng_array
00009b0c l     F .text	00000034 get_random_byte
00000000 l    df *ABS*	00000000 mpa_expmod.c
00000000 l    df *ABS*	00000000 mpa_io.c
00009e78 l     F .text	00000042 __mpa_isspace
00009eba l     F .text	00000084 __mpa_is_char_in_base
00009f3e l     F .text	00000058 __mpa_digit_value
00009f96 l     F .text	00000022 __mpa_digitstr_to_binary_wsize_base_16
00009fb8 l     F .text	00000050 __mpa_nibble_to_char
0000a008 l     F .text	00000066 __mpa_word_to_hexstr
0000a06e l     F .text	00000128 __mpa_mpanum_to_hexstr
0000a196 l     F .text	00000050 __mpa_count_leading_zero_bits
0000a1e6 l     F .text	00000064 __mpa_size_in_base_255
00010e88 l     O .rodata	0000000c __func__.5993
0001cc98 l     O .bss	00001002 buf.5979
00010e94 l     O .rodata	0000000c __func__.6007
0000a620 l     F .text	00000064 set_word
0000a770 l     F .text	00000044 get_word
00000000 l    df *ABS*	00000000 tee_api_objects.c
00000000 l    df *ABS*	00000000 tee_api_panic.c
00000000 l    df *ABS*	00000000 utee_misc.c
00000000 l    df *ABS*	00000000 snprintf.c
00000000 l    df *ABS*	00000000 memcmp.c
00000000 l    df *ABS*	00000000 memcpy.c
00000000 l    df *ABS*	00000000 memmove.c
00000000 l    df *ABS*	00000000 memset.c
00000000 l    df *ABS*	00000000 strlen.c
00000000 l    df *ABS*	00000000 buf_compare_ct.c
00000000 l    df *ABS*	00000000 aeabi_unwind.c
00000000 l    df *ABS*	00000000 memchr.c
00000000 l    df *ABS*	00000000 arm32_aeabi_ldivmod.c
0000c0cc l     F .text	000000ee division_lqr
0000c1ba l     F .text	0000006a ul_div_qr
00000000 l    df *ABS*	00000000 mpa_conv.c
00000000 l    df *ABS*	00000000 mpa_div.c
0000c4c2 l     F .text	000000d8 __mpa_soft_div
0000c5f2 l     F .text	0000061a __mpa_div_q_r_internal
00000000 l    df *ABS*	00000000 mpa_gcd.c
0000cf5e l     F .text	000000f4 __mpa_divby2
0000d052 l     F .text	000002c8 __mpa_egcd
0000d31a l     F .text	0000015a __mpa_gcd
00000000 l    df *ABS*	00000000 mpa_mem_static.c
00000000 l    df *ABS*	00000000 mpa_mul.c
00000000 l    df *ABS*	00000000 mpa_shift.c
00000000 l    df *ABS*	00000000 mpa_addsub.c
00000000 l    df *ABS*	00000000 mpa_cmp.c
00000000 l    df *ABS*	00000000 mpa_init.c
00000000 l    df *ABS*	00000000 mpa_modulus.c
00000000 l    df *ABS*	00000000 
0001282c l     O *ABS*	00000000 _DYNAMIC
000126ec l     O *ABS*	00000000 _GLOBAL_OFFSET_TABLE_
0000506c g     F .text	00000018 utee_se_channel_transmit
00006384 g     F .text	00000038 putchar
0000f068 g     F .text	0000004c mpa_init_static
0000ae7a g     F .text	0000012e TEE_PopulateTransientObject
00008fd0 g     F .text	00000048 mpa_copy
00006184 g     F .text	0000004c TEE_BigIntConvertToFMM
00005fe4 g     F .text	00000024 TEE_BigIntSquareMod
00005bc4 g     F .text	0000002a TEE_BigIntShiftRight
0000c3c8 g     F .text	00000096 mpa_get_S32
0000904a g     F .text	00000080 mpa_highest_bit_index
00004e5c g     F .text	00000018 utee_storage_obj_create
0000c296 g     F .text	000000e6 __l_divmod
00005030 g     F .text	00000014 utee_se_session_close
00004adc g     F .text	00000014 utee_return
00002c6c g     F .text	0000005c TEE_DigestUpdate
00004f8c g     F .text	00000014 utee_se_service_get_readers
00001ae0 g     F .text	00000020 TEE_Realloc
0000cc0c g     F .text	00000132 __mpa_div_q_r_internal_word
00005578 g     F .text	000000ac tee_user_mem_realloc
000028cc g     F .text	00000230 TEE_SetOperationKey2
0000e924 g     F .text	00000202 mpa_sub
000062e4 g     F .text	00000068 printf
00005624 g     F .text	00000110 tee_user_mem_free
00004af0 g     F .text	00000014 utee_log
000100f8 g     O .rodata	00000004 NR_STORED_PRIMES
0000afa8 g     F .text	0000004c TEE_InitRefAttribute
00001746 g     F .text	00000090 TEE_InvokeTACommand
00009134 g     F .text	00000032 mpa_can_hold
000001f4 g     F .text	00000168 getKeyIfExists
0000daa0 g     F .text	000000ae __mpa_abs_mul_word
00003ae4 g     F .text	000001fc TEE_AEEncryptFinal
00009648 g     F .text	0000004c mpa_montgomery_mul
00007c1e g     F .text	0000002e vsnprintk
00009166 g     F .text	0000002a mpa_parity
0000bc10 g     F .text	0000013e memmove
0000e400 g     F .text	00000064 __mpa_full_adder_ackum
0000b9fc g     F .text	0000003c snprintf
00005ba0 g     F .text	00000024 TEE_BigIntCmpS32
0000aff4 g     F .text	0000004c TEE_InitValueAttribute
0000bf88 g     F .text	00000010 __aeabi_unwind_cpp_pr0
00005c40 g     F .text	00000038 TEE_BigIntAdd
00004b30 g     F .text	00000014 utee_get_property_name_to_index
0000f830 g     O .rodata	00000004 ta_heap_size
000100f4 g     O .rodata	00000004 MAX_TABULATED_PRIME
0000ae1a g     F .text	00000060 TEE_ResetTransientObject
0000b966 g     F .text	0000001c utee_malloc
00004c14 g     F .text	00000018 utee_cryp_state_alloc
00004de4 g     F .text	00000018 utee_authenc_enc_final
0000da18 g     F .text	00000088 __mpa_mul_add_word_cum
00002d88 g     F .text	00000098 TEE_CipherInit
00005cb0 g     F .text	00000026 TEE_BigIntNeg
0000ce88 g     F .text	000000d6 mpa_div
00000020 g       .text	00000000 __text_start
0000b5c6 g     F .text	0000005a TEE_StartPersistentObjectEnumerator
000100e8 g     O .rodata	0000000c const_one
00007b26 g     F .text	000000c2 malloc_buffer_overlaps_heap
0000ef10 g     F .text	00000026 __mpa_abs_less_than
00005ea4 g     F .text	00000084 TEE_BigIntSubMod
00003800 g     F .text	000000e6 TEE_AEInit
00009b40 g     F .text	0000013c mpa_get_random
0000b9dc g     F .text	00000020 get_rng_array
00008c18 g     F .text	000002ec trace_printf
00004f64 g     F .text	00000014 utee_se_service_open
0000bb1e g     F .text	000000f2 memcpy
00004c40 g     F .text	00000014 utee_cryp_state_free
00008f9c g     F .text	00000034 mpa_wipe
000061d0 g     F .text	00000090 TEE_BigIntConvertFromFMM
0000b938 g     F .text	0000001a TEE_Panic
00005058 g     F .text	00000014 utee_se_channel_get_select_resp
00008f3c g     F .text	00000018 __aeabi_uldivmod
00002afc g     F .text	00000128 TEE_CopyOperation
0000634c g     F .text	00000038 puts
00006260 g     F .text	0000004c TEE_BigIntComputeFMM
0000c45e g     F .text	00000032 mpa_set_word
00006e14 g     F .text	00000044 malloc_get_stats
0000df2e g     F .text	00000228 mpa_shift_left
00004cc0 g     F .text	00000018 utee_cipher_final
0000dc5a g     F .text	000000c4 mpa_mul
00001a94 g     F .text	0000002c TEE_GetREETime
0000b502 g     F .text	00000060 TEE_AllocatePersistentObjectEnumerator
0001304c g     O .data	0000006c ta_props
00003ec4 g     F .text	00000196 TEE_AsymmetricEncrypt
000077c0 g     F .text	00000032 malloc
00004d28 g     F .text	00000014 utee_cryp_obj_close
00004fc8 g     F .text	00000014 utee_se_reader_open_session
0000ba38 g     F .text	0000002e vsnprintf
0000b144 g     F .text	000000f0 TEE_GenerateKey
00013048 g     O .data	00000004 trace_level
0000b952 g     F .text	00000014 utee_get_ta_exec_id
00005b78 g     F .text	00000028 TEE_BigIntCmp
0000b982 g     F .text	00000020 utee_realloc
0000f938 g     O .rodata	00000004 ta_num_props
0000673c g     F .text	00000094 bgetr
00004dcc g     F .text	00000018 utee_authenc_update_payload
00003130 g     F .text	000001bc TEE_CipherUpdate
00005a96 g     F .text	0000006a TEE_BigIntConvertToOctetString
00002568 g     F .text	000001a0 TEE_GetOperationInfoMultiple
00005098 g     F .text	00000014 utee_cache_operation
00004da0 g     F .text	00000018 utee_authenc_init
00005bee g     F .text	0000002e TEE_BigIntGetBit
0000f828 g     O .rodata	00000008 trace_ext_prefix
0000e464 g     F .text	00000114 __mpa_abs_add
000066a8 g     F .text	00000094 bgetz
000018dc g     F .text	0000001c TEE_GetInstanceData
00001992 g     F .text	00000038 TEE_Wait
00004f14 g     F .text	00000014 utee_storage_obj_write
0000d90e g     F .text	00000090 mpa_free_static_temp_var
00009694 g     F .text	00000056 mpa_is_prob_prime
0000bfa8 g     F .text	00000010 __aeabi_unwind_cpp_pr2
00005084 g     F .text	00000014 utee_se_channel_close
0000dd1e g     F .text	000000aa mpa_mul_word
00001b3e g     F .text	00000024 TEE_CacheFlush
000000d2 g     F .text	00000032 TA_DestroyEntryPoint
0000586c g     F .text	00000048 _assert_log
00005a02 g     F .text	0000002e TEE_BigIntFMMContextSizeInU32
00003726 g     F .text	000000da TEE_MACCompareFinal
0000b46e g     F .text	00000094 TEE_RenamePersistentObject
00002cc8 g     F .text	000000c0 TEE_DigestDoFinal
0000cd3e g     F .text	0000014a __mpa_div_q_r
000058f0 g     F .text	00000044 _TEE_MathAPI_Init
00004eec g     F .text	00000014 utee_storage_next_enum
0001310c g     O .bss	00008000 ta_heap
00006008 g     F .text	00000068 TEE_BigIntInvMod
0000017c g     F .text	00000038 TA_CloseSessionEntryPoint
0000405a g     F .text	00000196 TEE_AsymmetricDecrypt
0000b234 g     F .text	000000c6 TEE_OpenPersistentObject
00004b04 g     F .text	00000014 __utee_panic
00004c2c g     F .text	00000014 utee_cryp_state_copy
000013d4 g     F .text	0000007c TA_InvokeCommandEntryPoint
0000a684 g     F .text	000000ec mpa_set_oct_str
00005018 g     F .text	00000018 utee_se_session_open_channel
0000ddc8 g     F .text	000000b2 __mpa_shift_words_left
00004d14 g     F .text	00000014 utee_cryp_obj_alloc
00004c00 g     F .text	00000014 utee_set_ta_time
00004d00 g     F .text	00000014 utee_cryp_obj_get_attr
0000b040 g     F .text	0000004c TEE_CopyObjectAttributes
000092dc g     F .text	0000011a __mpa_montgomery_sub_ack
00007818 g     F .text	00000036 calloc
00001ac0 g     F .text	00000020 TEE_Malloc
00004bc4 g     F .text	00000014 utee_mask_cancellation
00004d3c g     F .text	00000014 utee_cryp_obj_reset
00001872 g     F .text	00000042 TEE_CheckMemoryAccessRights
0001dca0 g       .bss	00000000 __gprof_buf_end
0000c224 g     F .text	00000072 __ul_divmod
0000eb26 g     F .text	0000002a mpa_neg
000100fc g     O .rodata	00000c38 PRIME_TABLE
0000b6da g     F .text	00000088 TEE_ReadObjectData
0000ab88 g     F .text	000000c2 TEE_GetObjectBufferAttribute
00000104 g     F .text	00000078 TA_OpenSessionEntryPoint
0000d474 g     F .text	000000ec mpa_gcd
00009018 g     F .text	00000032 mpa_abs
00004ed8 g     F .text	00000014 utee_storage_start_enum
000024c8 g     F .text	0000004a TEE_FreeOperation
0000a25e g     F .text	00000332 mpa_set_str
00004e88 g     F .text	00000014 utee_storage_obj_rename
0001b110 g     O .bss	00000004 ta_param_types
0000a8e0 g     F .text	00000156 __utee_from_attr
00006138 g     F .text	0000004c TEE_BigIntIsProbablePrime
0000d8e8 g     F .text	00000026 mpa_alloc_static_temp_var
0000b424 g     F .text	0000004a TEE_CloseAndDeletePersistentObject1
00009ae4 g     F .text	00000028 mpa_set_random_generator
00004b18 g     F .text	00000018 utee_get_property
00003ce0 g     F .text	000001e4 TEE_AEDecryptFinal
00005934 g     F .text	0000001e TEE_BigIntInit
000018f8 g     F .text	00000024 TEE_MemMove
00005a30 g     F .text	00000066 TEE_BigIntConvertFromOctetString
000130b8 g     O .data	00000004 _ref__utee_mcount
0000353c g     F .text	00000072 TEE_MACInit
000041f0 g     F .text	00000180 TEE_AsymmetricSignDigest
0000bfb8 g     F .text	00000114 memchr
0000180a g     F .text	00000034 TEE_UnmaskCancellation
0000aa36 g     F .text	0000006e TEE_GetObjectInfo
0000f21c g     F .text	00000050 mpa_mul_mod
00004e74 g     F .text	00000014 utee_storage_obj_del
00003960 g     F .text	00000184 TEE_AEUpdate
00004f3c g     F .text	00000014 utee_storage_obj_seek
0000adba g     F .text	00000060 TEE_FreeTransientObject
00009526 g     F .text	00000122 mpa_compute_fmm_context
00004c68 g     F .text	00000014 utee_hash_update
0000d73a g     F .text	00000048 mpa_init_scratch_mem_sync
000050ac  w    F .text	0000000c __utee_mcount
00002512 g     F .text	00000056 TEE_GetOperationInfo
00005da4 g     F .text	0000007c TEE_BigIntMod
00005044 g     F .text	00000014 utee_se_channel_select_next
00004b5c g     F .text	00000014 utee_close_ta_session
00005d44 g     F .text	00000060 TEE_BigIntDiv
00006db4 g     F .text	00000060 malloc_reset_stats
00004ca8 g     F .text	00000018 utee_cipher_update
0000ab3c g     F .text	0000004c TEE_RestrictObjectUsage1
00005004 g     F .text	00000014 utee_se_session_get_atr
00007876 g     F .text	0000002e realloc
0000e578 g     F .text	000000e6 __mpa_abs_add_ackum
00004e2c g     F .text	00000018 utee_asymm_verify
00005cd6 g     F .text	0000003a TEE_BigIntMul
00002708 g     F .text	00000080 TEE_ResetOperation
0000c490 g     F .text	00000032 mpa_get_word
00001940 g     F .text	00000026 TEE_MemFill
0000ba66 g     F .text	000000b8 memcmp
00007900 g     F .text	00000188 malloc_add_pool
000035ae g     F .text	00000082 TEE_MACUpdate
00008b98 g     F .text	00000024 trace_get_level
00004d8c g     F .text	00000014 utee_cryp_random_number_generate
0000aaf0 g     F .text	0000004c TEE_RestrictObjectUsage
000059dc g     F .text	00000026 TEE_BigIntFMMSizeInU32
00005952 g     F .text	00000040 TEE_BigIntInitFMM
00004e14 g     F .text	00000018 utee_asymm_operate
0000ad28 g     F .text	00000032 TEE_CloseObject
00004a62 g     F .text	00000066 __utee_entry
0000f354 g       .text	00000000 __text_end
00006070 g     F .text	0000007c TEE_BigIntRelativePrime
00009c7c g     F .text	0000006c mpa_get_random_digits
00006b30 g     F .text	00000124 bpool
0000c37c g     F .text	0000004c mpa_set_S32
0000f0b4 g     F .text	0000009c mpa_init_static_fmm_context
000017d6 g     F .text	00000034 TEE_GetCancellationFlag
00004f78 g     F .text	00000014 utee_se_service_close
00005430 g     F .text	00000148 tee_user_mem_alloc
000130c8 g     O .data	00000008 user_mem_head
00001a4e g     F .text	00000046 TEE_SetTAPersistentTime
0000eb50 g     F .text	0000014a mpa_add_word
00004fa0 g     F .text	00000014 utee_se_reader_get_prop
0000bd4e g     F .text	0000011c memset
000019ca g     F .text	00000084 TEE_GetTAPersistentTime
00008f04 g     F .text	0000001e dhex_dump
0000b2fa g     F .text	000000f8 TEE_CreatePersistentObject
0000183e g     F .text	00000034 TEE_MaskCancellation
0000e398 g     F .text	00000068 __mpa_full_sub
000038e6 g     F .text	0000007a TEE_AEUpdateAAD
00004f00 g     F .text	00000014 utee_storage_obj_read
0000b7e0 g     F .text	0000006c TEE_TruncateObjectData
0000b9a2 g     F .text	00000020 utee_calloc
00004d50 g     F .text	00000014 utee_cryp_obj_populate
0000ef36 g     F .text	0000008a mpa_cmp
0000f26c g     F .text	000000e8 mpa_inv_mod
0000ec9a g     F .text	0000014e mpa_sub_word
0000d99e g     F .text	0000007a __mpa_mul_add_word
0000e74a g     F .text	000001da mpa_add
00009ce8 g     F .text	00000190 mpa_exp_mod
0000aaa4 g     F .text	0000004c TEE_GetObjectInfo1
0000de7a g     F .text	000000b4 __mpa_shift_words_right
000003d0 g     F .text	00000238 createKeyObj
00008b50 g     F .text	00000048 trace_set_level
00004ff0 g     F .text	00000014 utee_se_session_is_closed
00004cd8 g     F .text	00000014 utee_cryp_obj_get_info
0000ac4a g     F .text	000000de TEE_GetObjectValueAttribute
00002788 g     F .text	00000144 TEE_SetOperationKey
00004e9c g     F .text	00000014 utee_storage_alloc_enum
00004ec4 g     F .text	00000014 utee_storage_reset_enum
00004f28 g     F .text	00000014 utee_storage_obj_trunc
0000f150 g     F .text	0000002c mpa_mod
0000eee6 g     F .text	0000002a __mpa_abs_greater_than
00005b22 g     F .text	00000056 TEE_BigIntConvertToS32
00005c78 g     F .text	00000038 TEE_BigIntSub
00004b88 g     F .text	00000014 utee_get_cancellation_flag
00004c54 g     F .text	00000014 utee_hash_init
0000a8cc g     F .text	00000014 tahead_get_trace_level
00001450 g     F .text	00000166 __utee_from_param
0000b84c g     F .text	000000ec TEE_SeekObjectData
000100d8 g     O .rodata	00000010 Const_1_LShift_Base
000015b6 g     F .text	000000fa __utee_to_param
000078a4 g     F .text	00000036 memalign
000032ec g     F .text	00000250 TEE_CipherDoFinal
00005b00 g     F .text	00000022 TEE_BigIntConvertFromS32
0000f1cc g     F .text	00000050 mpa_sub_mod
00004cec g     F .text	00000014 utee_cryp_obj_restrict_usage
00007a88 g     F .text	0000009e malloc_buffer_is_within_alloced
00004d64 g     F .text	00000014 utee_cryp_obj_copy
0000e156 g     F .text	000001de mpa_shift_right
00005992 g     F .text	0000004a TEE_BigIntInitFMMContext
00004d78 g     F .text	00000014 utee_cryp_derive_key
000093f6 g     F .text	00000130 __mpa_montgomery_mul
0000a7b4 g     F .text	00000116 mpa_get_oct_str
0000efc0 g     F .text	000000a8 mpa_cmp_short
00004dfc g     F .text	00000018 utee_authenc_dec_final
0000b762 g     F .text	0000007e TEE_WriteObjectData
0000b594 g     F .text	00000032 TEE_ResetPersistentObjectEnumerator
0000ede8 g     F .text	000000fe __mpa_abs_cmp
00005d10 g     F .text	00000034 TEE_BigIntSquare
00000020 g     F .text	00000034 TA_CreateEntryPoint
00007be8 g     F .text	00000036 snprintk
00005c1c g     F .text	00000024 TEE_BigIntGetBitCount
0000035c g     F .text	00000074 checkIfPersistentObjectExists
00005f28 g     F .text	000000bc TEE_BigIntMulMod
000044d8 g     F .text	000001a0 TEE_DeriveKey
0001b114 g     O .bss	00000020 ta_params
0000db4e g     F .text	0000010c __mpa_abs_mul
00006440 g     F .text	00000268 bget
0000ad5a g     F .text	00000060 TEE_AllocateTransientObject
00001b00 g     F .text	0000001a TEE_Free
00004fb4 g     F .text	00000014 utee_se_reader_get_name
00001b62 g     F .text	00000024 TEE_CacheInvalidate
00004c94 g     F .text	00000014 utee_cipher_init
000058b4 g     F .text	00000014 _assert_break
00005e20 g     F .text	00000084 TEE_BigIntAddMod
00004eb0 g     F .text	00000014 utee_storage_free_enum
00004db8 g     F .text	00000014 utee_authenc_update_aad
000090ca g     F .text	0000006a mpa_get_bit
00001b88 g     F .text	00000940 TEE_AllocateOperation
0000d782 g     F .text	00000032 mpa_init_scratch_mem
00004678 g     F .text	0000002c TEE_GenerateRandom
0000191c g     F .text	00000024 TEE_MemCompare
00007c4c g     F .text	00000072 __vsnprintf
0000b562 g     F .text	00000032 TEE_FreePersistentObjectEnumerator
00004ac8 g     F .text	00000014 utee_panic
000016b0 g     F .text	00000066 TEE_OpenTASession
000062ac g     F .text	00000024 trace_ext_puts
00005830 g     F .text	0000003c tee_user_mem_garbage
000062d0 g     F .text	00000014 trace_ext_get_thread_id
0000b3f2 g     F .text	00000032 TEE_CloseAndDeletePersistentObject
00001b1a g     F .text	00000024 TEE_CacheClean
00004b44 g     F .text	00000018 utee_open_ta_session
0000bef4 g     F .text	00000094 buf_compare_ct
0000c59a g     F .text	00000058 __mpa_div_dword
00008f54 g     F .text	00000048 __mpa_set_unused_digits_to_zero
000100cc g     O .rodata	0000000c const_largest_deci_base
0000a24a g     F .text	00000014 mpa_get_str_size
00005754 g     F .text	00000074 tee_user_mem_check_heap
0000b08c g     F .text	000000b8 TEE_CopyObjectAttributes1
00004c7c g     F .text	00000018 utee_hash_final
0000be6a g     F .text	0000008a strlen
000060ec g     F .text	0000004c TEE_BigIntComputeExtendedGcd
0000bf98 g     F .text	00000010 __aeabi_unwind_cpp_pr1
0000d560 g     F .text	000001da mpa_extended_gcd
0000f17c g     F .text	00000050 mpa_add_mod
00004e44 g     F .text	00000018 utee_storage_obj_open
00004b70 g     F .text	00000018 utee_invoke_ta_command
0000a590 g     F .text	00000090 mpa_get_str
00004bd8 g     F .text	00000014 utee_wait
0000b9c2 g     F .text	0000001a utee_free
00005734 g     F .text	00000020 tee_user_mem_mark_heap
00001966 g     F .text	0000002c TEE_GetSystemTime
00000000 g     O .ta_head	00000020 ta_head
000067d0 g     F .text	00000360 brel
0000d7b4 g     F .text	00000134 mpa_alloc_static_temp_var_size
00004bec g     F .text	00000014 utee_get_time
000091a8 g     F .text	00000134 __mpa_montgomery_mul_add
000018b4 g     F .text	00000028 TEE_SetInstanceData
00004bb0 g     F .text	00000014 utee_unmask_cancellation
00008f24 g     F .text	00000018 __aeabi_ldivmod
00004b9c g     F .text	00000014 utee_check_access_rights
00004fdc g     F .text	00000014 utee_se_reader_close_sessions
0000b620 g     F .text	000000ba TEE_GetNextPersistentObject
00004f50 g     F .text	00000014 utee_cryp_obj_generate_key
00009190 g     F .text	00000018 mpa_constant_one
00001716 g     F .text	00000030 TEE_CloseTASession
00004370 g     F .text	00000168 TEE_AsymmetricVerifyDigest
0000e334 g     F .text	00000064 __mpa_full_adder
0000e65e g     F .text	000000ec __mpa_abs_sub
0001dca0 g       .bss	00000000 __gprof_buf_start
000077f2 g     F .text	00000026 free
00006c54 g     F .text	000000c4 bstats
00003630 g     F .text	000000f6 TEE_MACComputeFinal



Disassembly of section .text:

00000020 <TA_CreateEntryPoint>:
TA_CreateEntryPoint():
/home/hrl/optee/optee_examples/hello_aes/ta/hello_aes_ta.c:28
      20:	e96d 7e02 	strd	r7, lr, [sp, #-8]!
      24:	b082      	sub	sp, #8
      26:	af02      	add	r7, sp, #8
/home/hrl/optee/optee_examples/hello_aes/ta/hello_aes_ta.c:29
      28:	4b08      	ldr	r3, [pc, #32]	; (4c <TA_CreateEntryPoint+0x2c>)
      2a:	447b      	add	r3, pc
      2c:	9300      	str	r3, [sp, #0]
      2e:	f04f 0301 	mov.w	r3, #1
      32:	f04f 0203 	mov.w	r2, #3
      36:	f04f 011d 	mov.w	r1, #29
      3a:	4805      	ldr	r0, [pc, #20]	; (50 <TA_CreateEntryPoint+0x30>)
      3c:	4478      	add	r0, pc
      3e:	f008 fdeb 	bl	8c18 <trace_printf>
/home/hrl/optee/optee_examples/hello_aes/ta/hello_aes_ta.c:31
      42:	f04f 0300 	mov.w	r3, #0
/home/hrl/optee/optee_examples/hello_aes/ta/hello_aes_ta.c:32
      46:	4618      	mov	r0, r3
      48:	46bd      	mov	sp, r7
      4a:	bd80      	pop	{r7, pc}
      4c:	0000f326 	.word	0x0000f326
      50:	0000f704 	.word	0x0000f704

00000054 <myStrlen>:
myStrlen():
/home/hrl/optee/optee_examples/hello_aes/ta/hello_aes_ta.c:34
      54:	f84d 7d04 	str.w	r7, [sp, #-4]!
      58:	b085      	sub	sp, #20
      5a:	af00      	add	r7, sp, #0
      5c:	6078      	str	r0, [r7, #4]
/home/hrl/optee/optee_examples/hello_aes/ta/hello_aes_ta.c:36
      5e:	f04f 0300 	mov.w	r3, #0
      62:	60fb      	str	r3, [r7, #12]
      64:	e007      	b.n	76 <myStrlen+0x22>
/home/hrl/optee/optee_examples/hello_aes/ta/hello_aes_ta.c:36 (discriminator 3)
      66:	68fb      	ldr	r3, [r7, #12]
      68:	f103 0301 	add.w	r3, r3, #1
      6c:	60fb      	str	r3, [r7, #12]
      6e:	687b      	ldr	r3, [r7, #4]
      70:	f103 0301 	add.w	r3, r3, #1
      74:	607b      	str	r3, [r7, #4]
/home/hrl/optee/optee_examples/hello_aes/ta/hello_aes_ta.c:36 (discriminator 1)
      76:	687b      	ldr	r3, [r7, #4]
      78:	781b      	ldrb	r3, [r3, #0]
      7a:	2b00      	cmp	r3, #0
      7c:	d1f3      	bne.n	66 <myStrlen+0x12>
/home/hrl/optee/optee_examples/hello_aes/ta/hello_aes_ta.c:37
      7e:	68fb      	ldr	r3, [r7, #12]
/home/hrl/optee/optee_examples/hello_aes/ta/hello_aes_ta.c:38
      80:	4618      	mov	r0, r3
      82:	f107 0714 	add.w	r7, r7, #20
      86:	46bd      	mov	sp, r7
      88:	f85d 7b04 	ldr.w	r7, [sp], #4
      8c:	4770      	bx	lr

0000008e <myMemcpy>:
myMemcpy():
/home/hrl/optee/optee_examples/hello_aes/ta/hello_aes_ta.c:40
      8e:	f84d 7d04 	str.w	r7, [sp, #-4]!
      92:	b087      	sub	sp, #28
      94:	af00      	add	r7, sp, #0
      96:	60f8      	str	r0, [r7, #12]
      98:	60b9      	str	r1, [r7, #8]
      9a:	607a      	str	r2, [r7, #4]
/home/hrl/optee/optee_examples/hello_aes/ta/hello_aes_ta.c:41
      9c:	f04f 0300 	mov.w	r3, #0
      a0:	617b      	str	r3, [r7, #20]
      a2:	e00b      	b.n	bc <myMemcpy+0x2e>
/home/hrl/optee/optee_examples/hello_aes/ta/hello_aes_ta.c:42 (discriminator 3)
      a4:	68fa      	ldr	r2, [r7, #12]
      a6:	697b      	ldr	r3, [r7, #20]
      a8:	4413      	add	r3, r2
      aa:	68b9      	ldr	r1, [r7, #8]
      ac:	697a      	ldr	r2, [r7, #20]
      ae:	440a      	add	r2, r1
      b0:	7812      	ldrb	r2, [r2, #0]
      b2:	701a      	strb	r2, [r3, #0]
/home/hrl/optee/optee_examples/hello_aes/ta/hello_aes_ta.c:41 (discriminator 3)
      b4:	697b      	ldr	r3, [r7, #20]
      b6:	f103 0301 	add.w	r3, r3, #1
      ba:	617b      	str	r3, [r7, #20]
/home/hrl/optee/optee_examples/hello_aes/ta/hello_aes_ta.c:41 (discriminator 1)
      bc:	697a      	ldr	r2, [r7, #20]
      be:	687b      	ldr	r3, [r7, #4]
      c0:	429a      	cmp	r2, r3
      c2:	d3ef      	bcc.n	a4 <myMemcpy+0x16>
/home/hrl/optee/optee_examples/hello_aes/ta/hello_aes_ta.c:43
      c4:	bf00      	nop
      c6:	f107 071c 	add.w	r7, r7, #28
      ca:	46bd      	mov	sp, r7
      cc:	f85d 7b04 	ldr.w	r7, [sp], #4
      d0:	4770      	bx	lr

000000d2 <TA_DestroyEntryPoint>:
TA_DestroyEntryPoint():
/home/hrl/optee/optee_examples/hello_aes/ta/hello_aes_ta.c:46
      d2:	e96d 7e02 	strd	r7, lr, [sp, #-8]!
      d6:	b082      	sub	sp, #8
      d8:	af02      	add	r7, sp, #8
/home/hrl/optee/optee_examples/hello_aes/ta/hello_aes_ta.c:47
      da:	4b08      	ldr	r3, [pc, #32]	; (fc <TA_DestroyEntryPoint+0x2a>)
      dc:	447b      	add	r3, pc
      de:	9300      	str	r3, [sp, #0]
      e0:	f04f 0301 	mov.w	r3, #1
      e4:	f04f 0203 	mov.w	r2, #3
      e8:	f04f 012f 	mov.w	r1, #47	; 0x2f
      ec:	4804      	ldr	r0, [pc, #16]	; (100 <TA_DestroyEntryPoint+0x2e>)
      ee:	4478      	add	r0, pc
      f0:	f008 fd92 	bl	8c18 <trace_printf>
/home/hrl/optee/optee_examples/hello_aes/ta/hello_aes_ta.c:48
      f4:	bf00      	nop
      f6:	46bd      	mov	sp, r7
      f8:	bd80      	pop	{r7, pc}
      fa:	bf00      	nop
      fc:	0000f274 	.word	0x0000f274
     100:	0000f666 	.word	0x0000f666

00000104 <TA_OpenSessionEntryPoint>:
TA_OpenSessionEntryPoint():
/home/hrl/optee/optee_examples/hello_aes/ta/hello_aes_ta.c:54
     104:	e96d 7e02 	strd	r7, lr, [sp, #-8]!
     108:	b088      	sub	sp, #32
     10a:	af02      	add	r7, sp, #8
     10c:	60f8      	str	r0, [r7, #12]
     10e:	60b9      	str	r1, [r7, #8]
     110:	607a      	str	r2, [r7, #4]
/home/hrl/optee/optee_examples/hello_aes/ta/hello_aes_ta.c:55
     112:	f04f 0300 	mov.w	r3, #0
     116:	617b      	str	r3, [r7, #20]
/home/hrl/optee/optee_examples/hello_aes/ta/hello_aes_ta.c:60
     118:	4b14      	ldr	r3, [pc, #80]	; (16c <TA_OpenSessionEntryPoint+0x68>)
     11a:	447b      	add	r3, pc
     11c:	9300      	str	r3, [sp, #0]
     11e:	f04f 0301 	mov.w	r3, #1
     122:	f04f 0203 	mov.w	r2, #3
     126:	f04f 013c 	mov.w	r1, #60	; 0x3c
     12a:	4811      	ldr	r0, [pc, #68]	; (170 <TA_OpenSessionEntryPoint+0x6c>)
     12c:	4478      	add	r0, pc
     12e:	f008 fd73 	bl	8c18 <trace_printf>
/home/hrl/optee/optee_examples/hello_aes/ta/hello_aes_ta.c:62
     132:	68fa      	ldr	r2, [r7, #12]
     134:	697b      	ldr	r3, [r7, #20]
     136:	429a      	cmp	r2, r3
     138:	d004      	beq.n	144 <TA_OpenSessionEntryPoint+0x40>
/home/hrl/optee/optee_examples/hello_aes/ta/hello_aes_ta.c:63
     13a:	f04f 0306 	mov.w	r3, #6
     13e:	f6cf 73ff 	movt	r3, #65535	; 0xffff
     142:	e00e      	b.n	162 <TA_OpenSessionEntryPoint+0x5e>
/home/hrl/optee/optee_examples/hello_aes/ta/hello_aes_ta.c:73
     144:	4b0b      	ldr	r3, [pc, #44]	; (174 <TA_OpenSessionEntryPoint+0x70>)
     146:	447b      	add	r3, pc
     148:	9300      	str	r3, [sp, #0]
     14a:	f04f 0301 	mov.w	r3, #1
     14e:	f04f 0202 	mov.w	r2, #2
     152:	f04f 0149 	mov.w	r1, #73	; 0x49
     156:	4808      	ldr	r0, [pc, #32]	; (178 <TA_OpenSessionEntryPoint+0x74>)
     158:	4478      	add	r0, pc
     15a:	f008 fd5d 	bl	8c18 <trace_printf>
/home/hrl/optee/optee_examples/hello_aes/ta/hello_aes_ta.c:76
     15e:	f04f 0300 	mov.w	r3, #0
/home/hrl/optee/optee_examples/hello_aes/ta/hello_aes_ta.c:77
     162:	4618      	mov	r0, r3
     164:	f107 0718 	add.w	r7, r7, #24
     168:	46bd      	mov	sp, r7
     16a:	bd80      	pop	{r7, pc}
     16c:	0000f236 	.word	0x0000f236
     170:	0000f640 	.word	0x0000f640
     174:	0000f21a 	.word	0x0000f21a
     178:	0000f614 	.word	0x0000f614

0000017c <TA_CloseSessionEntryPoint>:
TA_CloseSessionEntryPoint():
/home/hrl/optee/optee_examples/hello_aes/ta/hello_aes_ta.c:84
     17c:	e96d 7e02 	strd	r7, lr, [sp, #-8]!
     180:	b084      	sub	sp, #16
     182:	af02      	add	r7, sp, #8
     184:	6078      	str	r0, [r7, #4]
/home/hrl/optee/optee_examples/hello_aes/ta/hello_aes_ta.c:86
     186:	4b09      	ldr	r3, [pc, #36]	; (1ac <TA_CloseSessionEntryPoint+0x30>)
     188:	447b      	add	r3, pc
     18a:	9300      	str	r3, [sp, #0]
     18c:	f04f 0301 	mov.w	r3, #1
     190:	f04f 0202 	mov.w	r2, #2
     194:	f04f 0156 	mov.w	r1, #86	; 0x56
     198:	4805      	ldr	r0, [pc, #20]	; (1b0 <TA_CloseSessionEntryPoint+0x34>)
     19a:	4478      	add	r0, pc
     19c:	f008 fd3c 	bl	8c18 <trace_printf>
/home/hrl/optee/optee_examples/hello_aes/ta/hello_aes_ta.c:87
     1a0:	bf00      	nop
     1a2:	f107 0708 	add.w	r7, r7, #8
     1a6:	46bd      	mov	sp, r7
     1a8:	bd80      	pop	{r7, pc}
     1aa:	bf00      	nop
     1ac:	0000f1e8 	.word	0x0000f1e8
     1b0:	0000f5ee 	.word	0x0000f5ee

000001b4 <myMemset>:
myMemset():
/home/hrl/optee/optee_examples/hello_aes/ta/hello_aes_ta.c:90
     1b4:	f84d 7d04 	str.w	r7, [sp, #-4]!
     1b8:	b087      	sub	sp, #28
     1ba:	af00      	add	r7, sp, #0
     1bc:	60f8      	str	r0, [r7, #12]
     1be:	460b      	mov	r3, r1
     1c0:	607a      	str	r2, [r7, #4]
     1c2:	72fb      	strb	r3, [r7, #11]
/home/hrl/optee/optee_examples/hello_aes/ta/hello_aes_ta.c:91
     1c4:	f04f 0300 	mov.w	r3, #0
     1c8:	617b      	str	r3, [r7, #20]
     1ca:	e008      	b.n	1de <myMemset+0x2a>
/home/hrl/optee/optee_examples/hello_aes/ta/hello_aes_ta.c:92 (discriminator 3)
     1cc:	68fa      	ldr	r2, [r7, #12]
     1ce:	697b      	ldr	r3, [r7, #20]
     1d0:	4413      	add	r3, r2
     1d2:	7afa      	ldrb	r2, [r7, #11]
     1d4:	701a      	strb	r2, [r3, #0]
/home/hrl/optee/optee_examples/hello_aes/ta/hello_aes_ta.c:91 (discriminator 3)
     1d6:	697b      	ldr	r3, [r7, #20]
     1d8:	f103 0301 	add.w	r3, r3, #1
     1dc:	617b      	str	r3, [r7, #20]
/home/hrl/optee/optee_examples/hello_aes/ta/hello_aes_ta.c:91 (discriminator 1)
     1de:	697a      	ldr	r2, [r7, #20]
     1e0:	687b      	ldr	r3, [r7, #4]
     1e2:	429a      	cmp	r2, r3
     1e4:	d3f2      	bcc.n	1cc <myMemset+0x18>
/home/hrl/optee/optee_examples/hello_aes/ta/hello_aes_ta.c:93
     1e6:	bf00      	nop
     1e8:	f107 071c 	add.w	r7, r7, #28
     1ec:	46bd      	mov	sp, r7
     1ee:	f85d 7b04 	ldr.w	r7, [sp], #4
     1f2:	4770      	bx	lr

000001f4 <getKeyIfExists>:
getKeyIfExists():
/home/hrl/optee/optee_examples/hello_aes/ta/hello_aes_ta.c:95
     1f4:	e96d 7e02 	strd	r7, lr, [sp, #-8]!
     1f8:	b092      	sub	sp, #72	; 0x48
     1fa:	af04      	add	r7, sp, #16
     1fc:	6078      	str	r0, [r7, #4]
/home/hrl/optee/optee_examples/hello_aes/ta/hello_aes_ta.c:96
     1fe:	f04f 0307 	mov.w	r3, #7
     202:	633b      	str	r3, [r7, #48]	; 0x30
/home/hrl/optee/optee_examples/hello_aes/ta/hello_aes_ta.c:97
     204:	f04f 0300 	mov.w	r3, #0
     208:	62bb      	str	r3, [r7, #40]	; 0x28
/home/hrl/optee/optee_examples/hello_aes/ta/hello_aes_ta.c:100
     20a:	f04f 0300 	mov.w	r3, #0
     20e:	637b      	str	r3, [r7, #52]	; 0x34
/home/hrl/optee/optee_examples/hello_aes/ta/hello_aes_ta.c:101
     210:	f04f 0300 	mov.w	r3, #0
     214:	60bb      	str	r3, [r7, #8]
/home/hrl/optee/optee_examples/hello_aes/ta/hello_aes_ta.c:104
     216:	4b45      	ldr	r3, [pc, #276]	; (32c <getKeyIfExists+0x138>)
     218:	447b      	add	r3, pc
     21a:	681a      	ldr	r2, [r3, #0]
     21c:	f107 0328 	add.w	r3, r7, #40	; 0x28
     220:	9300      	str	r3, [sp, #0]
     222:	6b3b      	ldr	r3, [r7, #48]	; 0x30
     224:	4942      	ldr	r1, [pc, #264]	; (330 <getKeyIfExists+0x13c>)
     226:	4479      	add	r1, pc
     228:	f04f 0001 	mov.w	r0, #1
     22c:	f00b f802 	bl	b234 <TEE_OpenPersistentObject>
     230:	62f8      	str	r0, [r7, #44]	; 0x2c
/home/hrl/optee/optee_examples/hello_aes/ta/hello_aes_ta.c:106
     232:	6afb      	ldr	r3, [r7, #44]	; 0x2c
     234:	2b00      	cmp	r3, #0
     236:	d00d      	beq.n	254 <getKeyIfExists+0x60>
/home/hrl/optee/optee_examples/hello_aes/ta/hello_aes_ta.c:108
     238:	4b3e      	ldr	r3, [pc, #248]	; (334 <getKeyIfExists+0x140>)
     23a:	447b      	add	r3, pc
     23c:	9300      	str	r3, [sp, #0]
     23e:	f04f 0301 	mov.w	r3, #1
     242:	f04f 0201 	mov.w	r2, #1
     246:	f04f 016c 	mov.w	r1, #108	; 0x6c
     24a:	483b      	ldr	r0, [pc, #236]	; (338 <getKeyIfExists+0x144>)
     24c:	4478      	add	r0, pc
     24e:	f008 fce3 	bl	8c18 <trace_printf>
/home/hrl/optee/optee_examples/hello_aes/ta/hello_aes_ta.c:109
     252:	e061      	b.n	318 <getKeyIfExists+0x124>
/home/hrl/optee/optee_examples/hello_aes/ta/hello_aes_ta.c:111
     254:	6abb      	ldr	r3, [r7, #40]	; 0x28
     256:	f107 020c 	add.w	r2, r7, #12
     25a:	4611      	mov	r1, r2
     25c:	4618      	mov	r0, r3
     25e:	f00a fbea 	bl	aa36 <TEE_GetObjectInfo>
/home/hrl/optee/optee_examples/hello_aes/ta/hello_aes_ta.c:112
     262:	69fb      	ldr	r3, [r7, #28]
     264:	6a3a      	ldr	r2, [r7, #32]
     266:	9202      	str	r2, [sp, #8]
     268:	9301      	str	r3, [sp, #4]
     26a:	4b34      	ldr	r3, [pc, #208]	; (33c <getKeyIfExists+0x148>)
     26c:	447b      	add	r3, pc
     26e:	9300      	str	r3, [sp, #0]
     270:	f04f 0301 	mov.w	r3, #1
     274:	f04f 0203 	mov.w	r2, #3
     278:	f04f 0170 	mov.w	r1, #112	; 0x70
     27c:	4830      	ldr	r0, [pc, #192]	; (340 <getKeyIfExists+0x14c>)
     27e:	4478      	add	r0, pc
     280:	f008 fcca 	bl	8c18 <trace_printf>
/home/hrl/optee/optee_examples/hello_aes/ta/hello_aes_ta.c:113
     284:	687b      	ldr	r3, [r7, #4]
     286:	f103 0301 	add.w	r3, r3, #1
     28a:	f04f 0100 	mov.w	r1, #0
     28e:	4618      	mov	r0, r3
     290:	f001 fc16 	bl	1ac0 <TEE_Malloc>
     294:	6378      	str	r0, [r7, #52]	; 0x34
/home/hrl/optee/optee_examples/hello_aes/ta/hello_aes_ta.c:114
     296:	6b7b      	ldr	r3, [r7, #52]	; 0x34
     298:	2b00      	cmp	r3, #0
     29a:	d10d      	bne.n	2b8 <getKeyIfExists+0xc4>
/home/hrl/optee/optee_examples/hello_aes/ta/hello_aes_ta.c:115
     29c:	4b29      	ldr	r3, [pc, #164]	; (344 <getKeyIfExists+0x150>)
     29e:	447b      	add	r3, pc
     2a0:	9300      	str	r3, [sp, #0]
     2a2:	f04f 0301 	mov.w	r3, #1
     2a6:	f04f 0201 	mov.w	r2, #1
     2aa:	f04f 0173 	mov.w	r1, #115	; 0x73
     2ae:	4826      	ldr	r0, [pc, #152]	; (348 <getKeyIfExists+0x154>)
     2b0:	4478      	add	r0, pc
     2b2:	f008 fcb1 	bl	8c18 <trace_printf>
/home/hrl/optee/optee_examples/hello_aes/ta/hello_aes_ta.c:116
     2b6:	e02f      	b.n	318 <getKeyIfExists+0x124>
/home/hrl/optee/optee_examples/hello_aes/ta/hello_aes_ta.c:119
     2b8:	687a      	ldr	r2, [r7, #4]
     2ba:	f04f 0100 	mov.w	r1, #0
     2be:	6b78      	ldr	r0, [r7, #52]	; 0x34
     2c0:	f7ff ff78 	bl	1b4 <myMemset>
/home/hrl/optee/optee_examples/hello_aes/ta/hello_aes_ta.c:120
     2c4:	6ab8      	ldr	r0, [r7, #40]	; 0x28
     2c6:	f107 0308 	add.w	r3, r7, #8
     2ca:	687a      	ldr	r2, [r7, #4]
     2cc:	6b79      	ldr	r1, [r7, #52]	; 0x34
     2ce:	f00b fa04 	bl	b6da <TEE_ReadObjectData>
     2d2:	62f8      	str	r0, [r7, #44]	; 0x2c
/home/hrl/optee/optee_examples/hello_aes/ta/hello_aes_ta.c:121
     2d4:	6afb      	ldr	r3, [r7, #44]	; 0x2c
     2d6:	2b00      	cmp	r3, #0
     2d8:	d00d      	beq.n	2f6 <getKeyIfExists+0x102>
/home/hrl/optee/optee_examples/hello_aes/ta/hello_aes_ta.c:123
     2da:	4b1c      	ldr	r3, [pc, #112]	; (34c <getKeyIfExists+0x158>)
     2dc:	447b      	add	r3, pc
     2de:	9300      	str	r3, [sp, #0]
     2e0:	f04f 0301 	mov.w	r3, #1
     2e4:	f04f 0201 	mov.w	r2, #1
     2e8:	f04f 017b 	mov.w	r1, #123	; 0x7b
     2ec:	4818      	ldr	r0, [pc, #96]	; (350 <getKeyIfExists+0x15c>)
     2ee:	4478      	add	r0, pc
     2f0:	f008 fc92 	bl	8c18 <trace_printf>
/home/hrl/optee/optee_examples/hello_aes/ta/hello_aes_ta.c:124
     2f4:	e010      	b.n	318 <getKeyIfExists+0x124>
/home/hrl/optee/optee_examples/hello_aes/ta/hello_aes_ta.c:126
     2f6:	68bb      	ldr	r3, [r7, #8]
     2f8:	6b7a      	ldr	r2, [r7, #52]	; 0x34
     2fa:	9202      	str	r2, [sp, #8]
     2fc:	9301      	str	r3, [sp, #4]
     2fe:	4b15      	ldr	r3, [pc, #84]	; (354 <getKeyIfExists+0x160>)
     300:	447b      	add	r3, pc
     302:	9300      	str	r3, [sp, #0]
     304:	f04f 0301 	mov.w	r3, #1
     308:	f04f 0202 	mov.w	r2, #2
     30c:	f04f 017e 	mov.w	r1, #126	; 0x7e
     310:	4811      	ldr	r0, [pc, #68]	; (358 <getKeyIfExists+0x164>)
     312:	4478      	add	r0, pc
     314:	f008 fc80 	bl	8c18 <trace_printf>
/home/hrl/optee/optee_examples/hello_aes/ta/hello_aes_ta.c:128
     318:	6abb      	ldr	r3, [r7, #40]	; 0x28
     31a:	4618      	mov	r0, r3
     31c:	f00a fd04 	bl	ad28 <TEE_CloseObject>
/home/hrl/optee/optee_examples/hello_aes/ta/hello_aes_ta.c:129
     320:	6b7b      	ldr	r3, [r7, #52]	; 0x34
/home/hrl/optee/optee_examples/hello_aes/ta/hello_aes_ta.c:130
     322:	4618      	mov	r0, r3
     324:	f107 0738 	add.w	r7, r7, #56	; 0x38
     328:	46bd      	mov	sp, r7
     32a:	bd80      	pop	{r7, pc}
     32c:	00012e28 	.word	0x00012e28
     330:	00012dd6 	.word	0x00012dd6
     334:	0000f142 	.word	0x0000f142
     338:	0000f558 	.word	0x0000f558
     33c:	0000f134 	.word	0x0000f134
     340:	0000f526 	.word	0x0000f526
     344:	0000f12a 	.word	0x0000f12a
     348:	0000f4f4 	.word	0x0000f4f4
     34c:	0000f0f4 	.word	0x0000f0f4
     350:	0000f4b6 	.word	0x0000f4b6
     354:	0000f0ec 	.word	0x0000f0ec
     358:	0000f492 	.word	0x0000f492

0000035c <checkIfPersistentObjectExists>:
checkIfPersistentObjectExists():
/home/hrl/optee/optee_examples/hello_aes/ta/hello_aes_ta.c:132
     35c:	e96d 7e02 	strd	r7, lr, [sp, #-8]!
     360:	b086      	sub	sp, #24
     362:	af02      	add	r7, sp, #8
/home/hrl/optee/optee_examples/hello_aes/ta/hello_aes_ta.c:134
     364:	f04f 0300 	mov.w	r3, #0
     368:	607b      	str	r3, [r7, #4]
/home/hrl/optee/optee_examples/hello_aes/ta/hello_aes_ta.c:135
     36a:	f04f 0307 	mov.w	r3, #7
     36e:	60fb      	str	r3, [r7, #12]
/home/hrl/optee/optee_examples/hello_aes/ta/hello_aes_ta.c:137
     370:	4b13      	ldr	r3, [pc, #76]	; (3c0 <checkIfPersistentObjectExists+0x64>)
     372:	447b      	add	r3, pc
     374:	681a      	ldr	r2, [r3, #0]
     376:	f107 0304 	add.w	r3, r7, #4
     37a:	9300      	str	r3, [sp, #0]
     37c:	68fb      	ldr	r3, [r7, #12]
     37e:	4911      	ldr	r1, [pc, #68]	; (3c4 <checkIfPersistentObjectExists+0x68>)
     380:	4479      	add	r1, pc
     382:	f04f 0001 	mov.w	r0, #1
     386:	f00a ff55 	bl	b234 <TEE_OpenPersistentObject>
     38a:	60b8      	str	r0, [r7, #8]
/home/hrl/optee/optee_examples/hello_aes/ta/hello_aes_ta.c:139
     38c:	68bb      	ldr	r3, [r7, #8]
     38e:	2b00      	cmp	r3, #0
     390:	d00f      	beq.n	3b2 <checkIfPersistentObjectExists+0x56>
/home/hrl/optee/optee_examples/hello_aes/ta/hello_aes_ta.c:141
     392:	4b0d      	ldr	r3, [pc, #52]	; (3c8 <checkIfPersistentObjectExists+0x6c>)
     394:	447b      	add	r3, pc
     396:	9300      	str	r3, [sp, #0]
     398:	f04f 0301 	mov.w	r3, #1
     39c:	f04f 0201 	mov.w	r2, #1
     3a0:	f04f 018d 	mov.w	r1, #141	; 0x8d
     3a4:	4809      	ldr	r0, [pc, #36]	; (3cc <checkIfPersistentObjectExists+0x70>)
     3a6:	4478      	add	r0, pc
     3a8:	f008 fc36 	bl	8c18 <trace_printf>
/home/hrl/optee/optee_examples/hello_aes/ta/hello_aes_ta.c:142
     3ac:	f04f 33ff 	mov.w	r3, #4294967295	; 0xffffffff
     3b0:	e001      	b.n	3b6 <checkIfPersistentObjectExists+0x5a>
/home/hrl/optee/optee_examples/hello_aes/ta/hello_aes_ta.c:144
     3b2:	f04f 0300 	mov.w	r3, #0
/home/hrl/optee/optee_examples/hello_aes/ta/hello_aes_ta.c:145 (discriminator 1)
     3b6:	4618      	mov	r0, r3
     3b8:	f107 0710 	add.w	r7, r7, #16
     3bc:	46bd      	mov	sp, r7
     3be:	bd80      	pop	{r7, pc}
     3c0:	00012cce 	.word	0x00012cce
     3c4:	00012c7c 	.word	0x00012c7c
     3c8:	0000f074 	.word	0x0000f074
     3cc:	0000f40e 	.word	0x0000f40e

000003d0 <createKeyObj>:
createKeyObj():
/home/hrl/optee/optee_examples/hello_aes/ta/hello_aes_ta.c:147
     3d0:	e96d 7e02 	strd	r7, lr, [sp, #-8]!
     3d4:	b094      	sub	sp, #80	; 0x50
     3d6:	af04      	add	r7, sp, #16
     3d8:	6078      	str	r0, [r7, #4]
     3da:	6039      	str	r1, [r7, #0]
/home/hrl/optee/optee_examples/hello_aes/ta/hello_aes_ta.c:149
     3dc:	f04f 0300 	mov.w	r3, #0
     3e0:	62fb      	str	r3, [r7, #44]	; 0x2c
/home/hrl/optee/optee_examples/hello_aes/ta/hello_aes_ta.c:150
     3e2:	f04f 0307 	mov.w	r3, #7
     3e6:	63bb      	str	r3, [r7, #56]	; 0x38
/home/hrl/optee/optee_examples/hello_aes/ta/hello_aes_ta.c:151
     3e8:	f04f 0300 	mov.w	r3, #0
     3ec:	62bb      	str	r3, [r7, #40]	; 0x28
/home/hrl/optee/optee_examples/hello_aes/ta/hello_aes_ta.c:153
     3ee:	f04f 0301 	mov.w	r3, #1
     3f2:	63fb      	str	r3, [r7, #60]	; 0x3c
/home/hrl/optee/optee_examples/hello_aes/ta/hello_aes_ta.c:156
     3f4:	687b      	ldr	r3, [r7, #4]
     3f6:	9301      	str	r3, [sp, #4]
     3f8:	4b6d      	ldr	r3, [pc, #436]	; (5b0 <createKeyObj+0x1e0>)
     3fa:	447b      	add	r3, pc
     3fc:	9300      	str	r3, [sp, #0]
     3fe:	f04f 0301 	mov.w	r3, #1
     402:	f04f 0202 	mov.w	r2, #2
     406:	f04f 019c 	mov.w	r1, #156	; 0x9c
     40a:	486a      	ldr	r0, [pc, #424]	; (5b4 <createKeyObj+0x1e4>)
     40c:	4478      	add	r0, pc
     40e:	f008 fc03 	bl	8c18 <trace_printf>
/home/hrl/optee/optee_examples/hello_aes/ta/hello_aes_ta.c:157
     412:	4b69      	ldr	r3, [pc, #420]	; (5b8 <createKeyObj+0x1e8>)
     414:	447b      	add	r3, pc
     416:	9300      	str	r3, [sp, #0]
     418:	f04f 0301 	mov.w	r3, #1
     41c:	f04f 0202 	mov.w	r2, #2
     420:	f04f 019d 	mov.w	r1, #157	; 0x9d
     424:	4865      	ldr	r0, [pc, #404]	; (5bc <createKeyObj+0x1ec>)
     426:	4478      	add	r0, pc
     428:	f008 fbf6 	bl	8c18 <trace_printf>
/home/hrl/optee/optee_examples/hello_aes/ta/hello_aes_ta.c:158
     42c:	4b64      	ldr	r3, [pc, #400]	; (5c0 <createKeyObj+0x1f0>)
     42e:	447b      	add	r3, pc
     430:	681a      	ldr	r2, [r3, #0]
     432:	f04f 0300 	mov.w	r3, #0
     436:	9303      	str	r3, [sp, #12]
     438:	683b      	ldr	r3, [r7, #0]
     43a:	9302      	str	r3, [sp, #8]
     43c:	687b      	ldr	r3, [r7, #4]
     43e:	9301      	str	r3, [sp, #4]
     440:	f04f 0300 	mov.w	r3, #0
     444:	9300      	str	r3, [sp, #0]
     446:	f04f 0304 	mov.w	r3, #4
     44a:	495e      	ldr	r1, [pc, #376]	; (5c4 <createKeyObj+0x1f4>)
     44c:	4479      	add	r1, pc
     44e:	f04f 0001 	mov.w	r0, #1
     452:	f00a ff52 	bl	b2fa <TEE_CreatePersistentObject>
     456:	6378      	str	r0, [r7, #52]	; 0x34
/home/hrl/optee/optee_examples/hello_aes/ta/hello_aes_ta.c:162
     458:	6b7b      	ldr	r3, [r7, #52]	; 0x34
     45a:	2b00      	cmp	r3, #0
     45c:	d01a      	beq.n	494 <createKeyObj+0xc4>
/home/hrl/optee/optee_examples/hello_aes/ta/hello_aes_ta.c:164
     45e:	4b5a      	ldr	r3, [pc, #360]	; (5c8 <createKeyObj+0x1f8>)
     460:	447b      	add	r3, pc
     462:	9300      	str	r3, [sp, #0]
     464:	f04f 0301 	mov.w	r3, #1
     468:	f04f 0202 	mov.w	r2, #2
     46c:	f04f 01a4 	mov.w	r1, #164	; 0xa4
     470:	4856      	ldr	r0, [pc, #344]	; (5cc <createKeyObj+0x1fc>)
     472:	4478      	add	r0, pc
     474:	f008 fbd0 	bl	8c18 <trace_printf>
/home/hrl/optee/optee_examples/hello_aes/ta/hello_aes_ta.c:165
     478:	4b55      	ldr	r3, [pc, #340]	; (5d0 <createKeyObj+0x200>)
     47a:	447b      	add	r3, pc
     47c:	9300      	str	r3, [sp, #0]
     47e:	f04f 0301 	mov.w	r3, #1
     482:	f04f 0201 	mov.w	r2, #1
     486:	f04f 01a5 	mov.w	r1, #165	; 0xa5
     48a:	4852      	ldr	r0, [pc, #328]	; (5d4 <createKeyObj+0x204>)
     48c:	4478      	add	r0, pc
     48e:	f008 fbc3 	bl	8c18 <trace_printf>
/home/hrl/optee/optee_examples/hello_aes/ta/hello_aes_ta.c:166
     492:	e083      	b.n	59c <createKeyObj+0x1cc>
/home/hrl/optee/optee_examples/hello_aes/ta/hello_aes_ta.c:168
     494:	4b50      	ldr	r3, [pc, #320]	; (5d8 <createKeyObj+0x208>)
     496:	447b      	add	r3, pc
     498:	681a      	ldr	r2, [r3, #0]
     49a:	f107 032c 	add.w	r3, r7, #44	; 0x2c
     49e:	9300      	str	r3, [sp, #0]
     4a0:	6bbb      	ldr	r3, [r7, #56]	; 0x38
     4a2:	494e      	ldr	r1, [pc, #312]	; (5dc <createKeyObj+0x20c>)
     4a4:	4479      	add	r1, pc
     4a6:	f04f 0001 	mov.w	r0, #1
     4aa:	f00a fec3 	bl	b234 <TEE_OpenPersistentObject>
     4ae:	6378      	str	r0, [r7, #52]	; 0x34
/home/hrl/optee/optee_examples/hello_aes/ta/hello_aes_ta.c:170
     4b0:	6b7b      	ldr	r3, [r7, #52]	; 0x34
     4b2:	2b00      	cmp	r3, #0
     4b4:	d00d      	beq.n	4d2 <createKeyObj+0x102>
/home/hrl/optee/optee_examples/hello_aes/ta/hello_aes_ta.c:172
     4b6:	4b4a      	ldr	r3, [pc, #296]	; (5e0 <createKeyObj+0x210>)
     4b8:	447b      	add	r3, pc
     4ba:	9300      	str	r3, [sp, #0]
     4bc:	f04f 0301 	mov.w	r3, #1
     4c0:	f04f 0201 	mov.w	r2, #1
     4c4:	f04f 01ac 	mov.w	r1, #172	; 0xac
     4c8:	4846      	ldr	r0, [pc, #280]	; (5e4 <createKeyObj+0x214>)
     4ca:	4478      	add	r0, pc
     4cc:	f008 fba4 	bl	8c18 <trace_printf>
/home/hrl/optee/optee_examples/hello_aes/ta/hello_aes_ta.c:173
     4d0:	e064      	b.n	59c <createKeyObj+0x1cc>
/home/hrl/optee/optee_examples/hello_aes/ta/hello_aes_ta.c:175
     4d2:	6afb      	ldr	r3, [r7, #44]	; 0x2c
     4d4:	f107 020c 	add.w	r2, r7, #12
     4d8:	4611      	mov	r1, r2
     4da:	4618      	mov	r0, r3
     4dc:	f00a faab 	bl	aa36 <TEE_GetObjectInfo>
/home/hrl/optee/optee_examples/hello_aes/ta/hello_aes_ta.c:176
     4e0:	69fb      	ldr	r3, [r7, #28]
     4e2:	6a3a      	ldr	r2, [r7, #32]
     4e4:	9202      	str	r2, [sp, #8]
     4e6:	9301      	str	r3, [sp, #4]
     4e8:	4b3f      	ldr	r3, [pc, #252]	; (5e8 <createKeyObj+0x218>)
     4ea:	447b      	add	r3, pc
     4ec:	9300      	str	r3, [sp, #0]
     4ee:	f04f 0301 	mov.w	r3, #1
     4f2:	f04f 0203 	mov.w	r2, #3
     4f6:	f04f 01b0 	mov.w	r1, #176	; 0xb0
     4fa:	483c      	ldr	r0, [pc, #240]	; (5ec <createKeyObj+0x21c>)
     4fc:	4478      	add	r0, pc
     4fe:	f008 fb8b 	bl	8c18 <trace_printf>
/home/hrl/optee/optee_examples/hello_aes/ta/hello_aes_ta.c:177
     502:	683b      	ldr	r3, [r7, #0]
     504:	f103 0301 	add.w	r3, r3, #1
     508:	f04f 0100 	mov.w	r1, #0
     50c:	4618      	mov	r0, r3
     50e:	f001 fad7 	bl	1ac0 <TEE_Malloc>
     512:	6338      	str	r0, [r7, #48]	; 0x30
/home/hrl/optee/optee_examples/hello_aes/ta/hello_aes_ta.c:178
     514:	6b3b      	ldr	r3, [r7, #48]	; 0x30
     516:	2b00      	cmp	r3, #0
     518:	d10d      	bne.n	536 <createKeyObj+0x166>
/home/hrl/optee/optee_examples/hello_aes/ta/hello_aes_ta.c:179
     51a:	4b35      	ldr	r3, [pc, #212]	; (5f0 <createKeyObj+0x220>)
     51c:	447b      	add	r3, pc
     51e:	9300      	str	r3, [sp, #0]
     520:	f04f 0301 	mov.w	r3, #1
     524:	f04f 0201 	mov.w	r2, #1
     528:	f04f 01b3 	mov.w	r1, #179	; 0xb3
     52c:	4831      	ldr	r0, [pc, #196]	; (5f4 <createKeyObj+0x224>)
     52e:	4478      	add	r0, pc
     530:	f008 fb72 	bl	8c18 <trace_printf>
/home/hrl/optee/optee_examples/hello_aes/ta/hello_aes_ta.c:180
     534:	e032      	b.n	59c <createKeyObj+0x1cc>
/home/hrl/optee/optee_examples/hello_aes/ta/hello_aes_ta.c:183
     536:	683a      	ldr	r2, [r7, #0]
     538:	f04f 0100 	mov.w	r1, #0
     53c:	6b38      	ldr	r0, [r7, #48]	; 0x30
     53e:	f7ff fe39 	bl	1b4 <myMemset>
/home/hrl/optee/optee_examples/hello_aes/ta/hello_aes_ta.c:184
     542:	6af8      	ldr	r0, [r7, #44]	; 0x2c
     544:	f107 0328 	add.w	r3, r7, #40	; 0x28
     548:	683a      	ldr	r2, [r7, #0]
     54a:	6b39      	ldr	r1, [r7, #48]	; 0x30
     54c:	f00b f8c5 	bl	b6da <TEE_ReadObjectData>
     550:	6378      	str	r0, [r7, #52]	; 0x34
/home/hrl/optee/optee_examples/hello_aes/ta/hello_aes_ta.c:185
     552:	6b7b      	ldr	r3, [r7, #52]	; 0x34
     554:	2b00      	cmp	r3, #0
     556:	d00d      	beq.n	574 <createKeyObj+0x1a4>
/home/hrl/optee/optee_examples/hello_aes/ta/hello_aes_ta.c:187
     558:	4b27      	ldr	r3, [pc, #156]	; (5f8 <createKeyObj+0x228>)
     55a:	447b      	add	r3, pc
     55c:	9300      	str	r3, [sp, #0]
     55e:	f04f 0301 	mov.w	r3, #1
     562:	f04f 0201 	mov.w	r2, #1
     566:	f04f 01bb 	mov.w	r1, #187	; 0xbb
     56a:	4824      	ldr	r0, [pc, #144]	; (5fc <createKeyObj+0x22c>)
     56c:	4478      	add	r0, pc
     56e:	f008 fb53 	bl	8c18 <trace_printf>
/home/hrl/optee/optee_examples/hello_aes/ta/hello_aes_ta.c:188
     572:	e013      	b.n	59c <createKeyObj+0x1cc>
/home/hrl/optee/optee_examples/hello_aes/ta/hello_aes_ta.c:190
     574:	6abb      	ldr	r3, [r7, #40]	; 0x28
     576:	6b3a      	ldr	r2, [r7, #48]	; 0x30
     578:	9202      	str	r2, [sp, #8]
     57a:	9301      	str	r3, [sp, #4]
     57c:	4b20      	ldr	r3, [pc, #128]	; (600 <createKeyObj+0x230>)
     57e:	447b      	add	r3, pc
     580:	9300      	str	r3, [sp, #0]
     582:	f04f 0301 	mov.w	r3, #1
     586:	f04f 0202 	mov.w	r2, #2
     58a:	f04f 01be 	mov.w	r1, #190	; 0xbe
     58e:	481d      	ldr	r0, [pc, #116]	; (604 <createKeyObj+0x234>)
     590:	4478      	add	r0, pc
     592:	f008 fb41 	bl	8c18 <trace_printf>
/home/hrl/optee/optee_examples/hello_aes/ta/hello_aes_ta.c:191
     596:	f04f 0300 	mov.w	r3, #0
     59a:	63fb      	str	r3, [r7, #60]	; 0x3c
/home/hrl/optee/optee_examples/hello_aes/ta/hello_aes_ta.c:193
     59c:	6afb      	ldr	r3, [r7, #44]	; 0x2c
     59e:	4618      	mov	r0, r3
     5a0:	f00a fbc2 	bl	ad28 <TEE_CloseObject>
/home/hrl/optee/optee_examples/hello_aes/ta/hello_aes_ta.c:194
     5a4:	6bfb      	ldr	r3, [r7, #60]	; 0x3c
/home/hrl/optee/optee_examples/hello_aes/ta/hello_aes_ta.c:195
     5a6:	4618      	mov	r0, r3
     5a8:	f107 0740 	add.w	r7, r7, #64	; 0x40
     5ac:	46bd      	mov	sp, r7
     5ae:	bd80      	pop	{r7, pc}
     5b0:	0000f022 	.word	0x0000f022
     5b4:	0000f3c8 	.word	0x0000f3c8
     5b8:	0000f00c 	.word	0x0000f00c
     5bc:	0000f3ae 	.word	0x0000f3ae
     5c0:	00012c12 	.word	0x00012c12
     5c4:	00012bb0 	.word	0x00012bb0
     5c8:	0000efe0 	.word	0x0000efe0
     5cc:	0000f362 	.word	0x0000f362
     5d0:	0000efde 	.word	0x0000efde
     5d4:	0000f348 	.word	0x0000f348
     5d8:	00012baa 	.word	0x00012baa
     5dc:	00012b58 	.word	0x00012b58
     5e0:	0000eec4 	.word	0x0000eec4
     5e4:	0000f30a 	.word	0x0000f30a
     5e8:	0000eeb6 	.word	0x0000eeb6
     5ec:	0000f2d8 	.word	0x0000f2d8
     5f0:	0000eeac 	.word	0x0000eeac
     5f4:	0000f2a6 	.word	0x0000f2a6
     5f8:	0000ee76 	.word	0x0000ee76
     5fc:	0000f268 	.word	0x0000f268
     600:	0000ee6e 	.word	0x0000ee6e
     604:	0000f244 	.word	0x0000f244

00000608 <aes_init>:
aes_init():
/home/hrl/optee/optee_examples/hello_aes/ta/hello_aes_ta.c:199
     608:	f84d 4d0c 	str.w	r4, [sp, #-12]!
     60c:	e9cd 7e01 	strd	r7, lr, [sp, #4]
     610:	b09d      	sub	sp, #116	; 0x74
     612:	af02      	add	r7, sp, #8
     614:	6078      	str	r0, [r7, #4]
     616:	6039      	str	r1, [r7, #0]
/home/hrl/optee/optee_examples/hello_aes/ta/hello_aes_ta.c:200
     618:	f04f 0300 	mov.w	r3, #0
     61c:	65bb      	str	r3, [r7, #88]	; 0x58
/home/hrl/optee/optee_examples/hello_aes/ta/hello_aes_ta.c:201
     61e:	f107 0238 	add.w	r2, r7, #56	; 0x38
     622:	f04f 0300 	mov.w	r3, #0
     626:	f04f 0400 	mov.w	r4, #0
     62a:	e9c2 3400 	strd	r3, r4, [r2]
     62e:	e9c2 3402 	strd	r3, r4, [r2, #8]
     632:	6113      	str	r3, [r2, #16]
     634:	f107 0210 	add.w	r2, r7, #16
     638:	f04f 0300 	mov.w	r3, #0
     63c:	f04f 0400 	mov.w	r4, #0
     640:	e9c2 3400 	strd	r3, r4, [r2]
     644:	e9c2 3402 	strd	r3, r4, [r2, #8]
     648:	e9c2 3404 	strd	r3, r4, [r2, #16]
     64c:	e9c2 3406 	strd	r3, r4, [r2, #24]
     650:	e9c2 3408 	strd	r3, r4, [r2, #32]
/home/hrl/optee/optee_examples/hello_aes/ta/hello_aes_ta.c:202
     654:	f04f 0300 	mov.w	r3, #0
     658:	667b      	str	r3, [r7, #100]	; 0x64
     65a:	f04f 0300 	mov.w	r3, #0
     65e:	663b      	str	r3, [r7, #96]	; 0x60
     660:	f04f 0300 	mov.w	r3, #0
     664:	65fb      	str	r3, [r7, #92]	; 0x5c
/home/hrl/optee/optee_examples/hello_aes/ta/hello_aes_ta.c:203
     666:	f04f 0300 	mov.w	r3, #0
     66a:	60fb      	str	r3, [r7, #12]
/home/hrl/optee/optee_examples/hello_aes/ta/hello_aes_ta.c:205
     66c:	683b      	ldr	r3, [r7, #0]
     66e:	685b      	ldr	r3, [r3, #4]
     670:	657b      	str	r3, [r7, #84]	; 0x54
/home/hrl/optee/optee_examples/hello_aes/ta/hello_aes_ta.c:206
     672:	f04f 0314 	mov.w	r3, #20
     676:	60bb      	str	r3, [r7, #8]
/home/hrl/optee/optee_examples/hello_aes/ta/hello_aes_ta.c:209
     678:	4b9d      	ldr	r3, [pc, #628]	; (8f0 <aes_init+0x2e8>)
     67a:	447b      	add	r3, pc
     67c:	9300      	str	r3, [sp, #0]
     67e:	f04f 0301 	mov.w	r3, #1
     682:	f04f 0202 	mov.w	r2, #2
     686:	f04f 01d1 	mov.w	r1, #209	; 0xd1
     68a:	489a      	ldr	r0, [pc, #616]	; (8f4 <aes_init+0x2ec>)
     68c:	4478      	add	r0, pc
     68e:	f008 fac3 	bl	8c18 <trace_printf>
/home/hrl/optee/optee_examples/hello_aes/ta/hello_aes_ta.c:211
     692:	683b      	ldr	r3, [r7, #0]
     694:	685b      	ldr	r3, [r3, #4]
     696:	f04f 0100 	mov.w	r1, #0
     69a:	4618      	mov	r0, r3
     69c:	f001 fa10 	bl	1ac0 <TEE_Malloc>
     6a0:	65b8      	str	r0, [r7, #88]	; 0x58
/home/hrl/optee/optee_examples/hello_aes/ta/hello_aes_ta.c:212
     6a2:	683b      	ldr	r3, [r7, #0]
     6a4:	6819      	ldr	r1, [r3, #0]
     6a6:	683b      	ldr	r3, [r7, #0]
     6a8:	685b      	ldr	r3, [r3, #4]
     6aa:	461a      	mov	r2, r3
     6ac:	6db8      	ldr	r0, [r7, #88]	; 0x58
     6ae:	f001 f923 	bl	18f8 <TEE_MemMove>
/home/hrl/optee/optee_examples/hello_aes/ta/hello_aes_ta.c:213
     6b2:	4b91      	ldr	r3, [pc, #580]	; (8f8 <aes_init+0x2f0>)
     6b4:	447b      	add	r3, pc
     6b6:	9300      	str	r3, [sp, #0]
     6b8:	f04f 0301 	mov.w	r3, #1
     6bc:	f04f 0202 	mov.w	r2, #2
     6c0:	f04f 01d5 	mov.w	r1, #213	; 0xd5
     6c4:	488d      	ldr	r0, [pc, #564]	; (8fc <aes_init+0x2f4>)
     6c6:	4478      	add	r0, pc
     6c8:	f008 faa6 	bl	8c18 <trace_printf>
/home/hrl/optee/optee_examples/hello_aes/ta/hello_aes_ta.c:214
     6cc:	f107 000c 	add.w	r0, r7, #12
     6d0:	f04f 0300 	mov.w	r3, #0
     6d4:	f04f 0205 	mov.w	r2, #5
     6d8:	f04f 0102 	mov.w	r1, #2
     6dc:	f2c5 0100 	movt	r1, #20480	; 0x5000
     6e0:	f001 fa52 	bl	1b88 <TEE_AllocateOperation>
     6e4:	6538      	str	r0, [r7, #80]	; 0x50
/home/hrl/optee/optee_examples/hello_aes/ta/hello_aes_ta.c:215
     6e6:	6d3b      	ldr	r3, [r7, #80]	; 0x50
     6e8:	9301      	str	r3, [sp, #4]
     6ea:	4b85      	ldr	r3, [pc, #532]	; (900 <aes_init+0x2f8>)
     6ec:	447b      	add	r3, pc
     6ee:	9300      	str	r3, [sp, #0]
     6f0:	f04f 0301 	mov.w	r3, #1
     6f4:	f04f 0202 	mov.w	r2, #2
     6f8:	f04f 01d7 	mov.w	r1, #215	; 0xd7
     6fc:	4881      	ldr	r0, [pc, #516]	; (904 <aes_init+0x2fc>)
     6fe:	4478      	add	r0, pc
     700:	f008 fa8a 	bl	8c18 <trace_printf>
/home/hrl/optee/optee_examples/hello_aes/ta/hello_aes_ta.c:216
     704:	68fb      	ldr	r3, [r7, #12]
     706:	6d7a      	ldr	r2, [r7, #84]	; 0x54
     708:	6db9      	ldr	r1, [r7, #88]	; 0x58
     70a:	4618      	mov	r0, r3
     70c:	f002 faae 	bl	2c6c <TEE_DigestUpdate>
/home/hrl/optee/optee_examples/hello_aes/ta/hello_aes_ta.c:217
     710:	4b7d      	ldr	r3, [pc, #500]	; (908 <aes_init+0x300>)
     712:	447b      	add	r3, pc
     714:	9300      	str	r3, [sp, #0]
     716:	f04f 0301 	mov.w	r3, #1
     71a:	f04f 0202 	mov.w	r2, #2
     71e:	f04f 01d9 	mov.w	r1, #217	; 0xd9
     722:	487a      	ldr	r0, [pc, #488]	; (90c <aes_init+0x304>)
     724:	4478      	add	r0, pc
     726:	f008 fa77 	bl	8c18 <trace_printf>
/home/hrl/optee/optee_examples/hello_aes/ta/hello_aes_ta.c:218
     72a:	f107 0338 	add.w	r3, r7, #56	; 0x38
     72e:	9301      	str	r3, [sp, #4]
     730:	4b77      	ldr	r3, [pc, #476]	; (910 <aes_init+0x308>)
     732:	447b      	add	r3, pc
     734:	9300      	str	r3, [sp, #0]
     736:	f04f 0301 	mov.w	r3, #1
     73a:	f04f 0202 	mov.w	r2, #2
     73e:	f04f 01da 	mov.w	r1, #218	; 0xda
     742:	4874      	ldr	r0, [pc, #464]	; (914 <aes_init+0x30c>)
     744:	4478      	add	r0, pc
     746:	f008 fa67 	bl	8c18 <trace_printf>
/home/hrl/optee/optee_examples/hello_aes/ta/hello_aes_ta.c:219
     74a:	68f8      	ldr	r0, [r7, #12]
     74c:	f107 0238 	add.w	r2, r7, #56	; 0x38
     750:	f107 0308 	add.w	r3, r7, #8
     754:	9300      	str	r3, [sp, #0]
     756:	4613      	mov	r3, r2
     758:	6d7a      	ldr	r2, [r7, #84]	; 0x54
     75a:	6db9      	ldr	r1, [r7, #88]	; 0x58
     75c:	f002 fab4 	bl	2cc8 <TEE_DigestDoFinal>
     760:	6538      	str	r0, [r7, #80]	; 0x50
/home/hrl/optee/optee_examples/hello_aes/ta/hello_aes_ta.c:220
     762:	4b6d      	ldr	r3, [pc, #436]	; (918 <aes_init+0x310>)
     764:	447b      	add	r3, pc
     766:	9300      	str	r3, [sp, #0]
     768:	f04f 0301 	mov.w	r3, #1
     76c:	f04f 0202 	mov.w	r2, #2
     770:	f04f 01dc 	mov.w	r1, #220	; 0xdc
     774:	4869      	ldr	r0, [pc, #420]	; (91c <aes_init+0x314>)
     776:	4478      	add	r0, pc
     778:	f008 fa4e 	bl	8c18 <trace_printf>
/home/hrl/optee/optee_examples/hello_aes/ta/hello_aes_ta.c:221
     77c:	f107 0338 	add.w	r3, r7, #56	; 0x38
     780:	9301      	str	r3, [sp, #4]
     782:	4b67      	ldr	r3, [pc, #412]	; (920 <aes_init+0x318>)
     784:	447b      	add	r3, pc
     786:	9300      	str	r3, [sp, #0]
     788:	f04f 0301 	mov.w	r3, #1
     78c:	f04f 0202 	mov.w	r2, #2
     790:	f04f 01dd 	mov.w	r1, #221	; 0xdd
     794:	4863      	ldr	r0, [pc, #396]	; (924 <aes_init+0x31c>)
     796:	4478      	add	r0, pc
     798:	f008 fa3e 	bl	8c18 <trace_printf>
/home/hrl/optee/optee_examples/hello_aes/ta/hello_aes_ta.c:223
     79c:	f04f 0300 	mov.w	r3, #0
     7a0:	667b      	str	r3, [r7, #100]	; 0x64
     7a2:	e01e      	b.n	7e2 <aes_init+0x1da>
/home/hrl/optee/optee_examples/hello_aes/ta/hello_aes_ta.c:224
     7a4:	f04f 0300 	mov.w	r3, #0
     7a8:	663b      	str	r3, [r7, #96]	; 0x60
     7aa:	e012      	b.n	7d2 <aes_init+0x1ca>
/home/hrl/optee/optee_examples/hello_aes/ta/hello_aes_ta.c:225 (discriminator 3)
     7ac:	f107 0238 	add.w	r2, r7, #56	; 0x38
     7b0:	6e3b      	ldr	r3, [r7, #96]	; 0x60
     7b2:	4413      	add	r3, r2
     7b4:	7819      	ldrb	r1, [r3, #0]
     7b6:	f107 0210 	add.w	r2, r7, #16
     7ba:	6dfb      	ldr	r3, [r7, #92]	; 0x5c
     7bc:	4413      	add	r3, r2
     7be:	460a      	mov	r2, r1
     7c0:	701a      	strb	r2, [r3, #0]
/home/hrl/optee/optee_examples/hello_aes/ta/hello_aes_ta.c:226 (discriminator 3)
     7c2:	6dfb      	ldr	r3, [r7, #92]	; 0x5c
     7c4:	f103 0301 	add.w	r3, r3, #1
     7c8:	65fb      	str	r3, [r7, #92]	; 0x5c
/home/hrl/optee/optee_examples/hello_aes/ta/hello_aes_ta.c:224 (discriminator 3)
     7ca:	6e3b      	ldr	r3, [r7, #96]	; 0x60
     7cc:	f103 0301 	add.w	r3, r3, #1
     7d0:	663b      	str	r3, [r7, #96]	; 0x60
/home/hrl/optee/optee_examples/hello_aes/ta/hello_aes_ta.c:224 (discriminator 1)
     7d2:	68bb      	ldr	r3, [r7, #8]
     7d4:	6e3a      	ldr	r2, [r7, #96]	; 0x60
     7d6:	429a      	cmp	r2, r3
     7d8:	d3e8      	bcc.n	7ac <aes_init+0x1a4>
/home/hrl/optee/optee_examples/hello_aes/ta/hello_aes_ta.c:223 (discriminator 2)
     7da:	6e7b      	ldr	r3, [r7, #100]	; 0x64
     7dc:	f103 0301 	add.w	r3, r3, #1
     7e0:	667b      	str	r3, [r7, #100]	; 0x64
/home/hrl/optee/optee_examples/hello_aes/ta/hello_aes_ta.c:223 (discriminator 1)
     7e2:	6e7b      	ldr	r3, [r7, #100]	; 0x64
     7e4:	2b01      	cmp	r3, #1
     7e6:	d9dd      	bls.n	7a4 <aes_init+0x19c>
/home/hrl/optee/optee_examples/hello_aes/ta/hello_aes_ta.c:229
     7e8:	f107 0310 	add.w	r3, r7, #16
     7ec:	9301      	str	r3, [sp, #4]
     7ee:	4b4e      	ldr	r3, [pc, #312]	; (928 <aes_init+0x320>)
     7f0:	447b      	add	r3, pc
     7f2:	9300      	str	r3, [sp, #0]
     7f4:	f04f 0301 	mov.w	r3, #1
     7f8:	f04f 0202 	mov.w	r2, #2
     7fc:	f04f 01e5 	mov.w	r1, #229	; 0xe5
     800:	484a      	ldr	r0, [pc, #296]	; (92c <aes_init+0x324>)
     802:	4478      	add	r0, pc
     804:	f008 fa08 	bl	8c18 <trace_printf>
/home/hrl/optee/optee_examples/hello_aes/ta/hello_aes_ta.c:230
     808:	f04f 0300 	mov.w	r3, #0
     80c:	65fb      	str	r3, [r7, #92]	; 0x5c
/home/hrl/optee/optee_examples/hello_aes/ta/hello_aes_ta.c:231
     80e:	f04f 0300 	mov.w	r3, #0
     812:	663b      	str	r3, [r7, #96]	; 0x60
     814:	e007      	b.n	826 <aes_init+0x21e>
/home/hrl/optee/optee_examples/hello_aes/ta/hello_aes_ta.c:232 (discriminator 3)
     816:	6dfb      	ldr	r3, [r7, #92]	; 0x5c
     818:	f103 0301 	add.w	r3, r3, #1
     81c:	65fb      	str	r3, [r7, #92]	; 0x5c
/home/hrl/optee/optee_examples/hello_aes/ta/hello_aes_ta.c:231 (discriminator 3)
     81e:	6e3b      	ldr	r3, [r7, #96]	; 0x60
     820:	f103 0301 	add.w	r3, r3, #1
     824:	663b      	str	r3, [r7, #96]	; 0x60
/home/hrl/optee/optee_examples/hello_aes/ta/hello_aes_ta.c:231 (discriminator 1)
     826:	6e3b      	ldr	r3, [r7, #96]	; 0x60
     828:	2b0f      	cmp	r3, #15
     82a:	d9f4      	bls.n	816 <aes_init+0x20e>
/home/hrl/optee/optee_examples/hello_aes/ta/hello_aes_ta.c:234
     82c:	f04f 0300 	mov.w	r3, #0
     830:	663b      	str	r3, [r7, #96]	; 0x60
     832:	e012      	b.n	85a <aes_init+0x252>
/home/hrl/optee/optee_examples/hello_aes/ta/hello_aes_ta.c:235 (discriminator 3)
     834:	f107 0210 	add.w	r2, r7, #16
     838:	6dfb      	ldr	r3, [r7, #92]	; 0x5c
     83a:	4413      	add	r3, r2
     83c:	781a      	ldrb	r2, [r3, #0]
     83e:	4b3c      	ldr	r3, [pc, #240]	; (930 <aes_init+0x328>)
     840:	447b      	add	r3, pc
     842:	4619      	mov	r1, r3
     844:	6e3b      	ldr	r3, [r7, #96]	; 0x60
     846:	440b      	add	r3, r1
     848:	701a      	strb	r2, [r3, #0]
/home/hrl/optee/optee_examples/hello_aes/ta/hello_aes_ta.c:236 (discriminator 3)
     84a:	6dfb      	ldr	r3, [r7, #92]	; 0x5c
     84c:	f103 0301 	add.w	r3, r3, #1
     850:	65fb      	str	r3, [r7, #92]	; 0x5c
/home/hrl/optee/optee_examples/hello_aes/ta/hello_aes_ta.c:234 (discriminator 3)
     852:	6e3b      	ldr	r3, [r7, #96]	; 0x60
     854:	f103 0301 	add.w	r3, r3, #1
     858:	663b      	str	r3, [r7, #96]	; 0x60
/home/hrl/optee/optee_examples/hello_aes/ta/hello_aes_ta.c:234 (discriminator 1)
     85a:	6e3b      	ldr	r3, [r7, #96]	; 0x60
     85c:	2b0f      	cmp	r3, #15
     85e:	d9e9      	bls.n	834 <aes_init+0x22c>
/home/hrl/optee/optee_examples/hello_aes/ta/hello_aes_ta.c:241
     860:	4b34      	ldr	r3, [pc, #208]	; (934 <aes_init+0x32c>)
     862:	447b      	add	r3, pc
     864:	9301      	str	r3, [sp, #4]
     866:	4b34      	ldr	r3, [pc, #208]	; (938 <aes_init+0x330>)
     868:	447b      	add	r3, pc
     86a:	9300      	str	r3, [sp, #0]
     86c:	f04f 0301 	mov.w	r3, #1
     870:	f04f 0202 	mov.w	r2, #2
     874:	f04f 01f1 	mov.w	r1, #241	; 0xf1
     878:	4830      	ldr	r0, [pc, #192]	; (93c <aes_init+0x334>)
     87a:	4478      	add	r0, pc
     87c:	f008 f9cc 	bl	8c18 <trace_printf>
/home/hrl/optee/optee_examples/hello_aes/ta/hello_aes_ta.c:242
     880:	4b2f      	ldr	r3, [pc, #188]	; (940 <aes_init+0x338>)
     882:	447b      	add	r3, pc
     884:	4618      	mov	r0, r3
     886:	f7ff fbe5 	bl	54 <myStrlen>
     88a:	4603      	mov	r3, r0
     88c:	4619      	mov	r1, r3
     88e:	4b2d      	ldr	r3, [pc, #180]	; (944 <aes_init+0x33c>)
     890:	447b      	add	r3, pc
     892:	4618      	mov	r0, r3
     894:	f7ff fd9c 	bl	3d0 <createKeyObj>
     898:	64f8      	str	r0, [r7, #76]	; 0x4c
/home/hrl/optee/optee_examples/hello_aes/ta/hello_aes_ta.c:243
     89a:	6cfb      	ldr	r3, [r7, #76]	; 0x4c
     89c:	2b00      	cmp	r3, #0
     89e:	d10f      	bne.n	8c0 <aes_init+0x2b8>
/home/hrl/optee/optee_examples/hello_aes/ta/hello_aes_ta.c:244
     8a0:	4b29      	ldr	r3, [pc, #164]	; (948 <aes_init+0x340>)
     8a2:	447b      	add	r3, pc
     8a4:	9300      	str	r3, [sp, #0]
     8a6:	f04f 0301 	mov.w	r3, #1
     8aa:	f04f 0202 	mov.w	r2, #2
     8ae:	f04f 01f4 	mov.w	r1, #244	; 0xf4
     8b2:	4826      	ldr	r0, [pc, #152]	; (94c <aes_init+0x344>)
     8b4:	4478      	add	r0, pc
     8b6:	f008 f9af 	bl	8c18 <trace_printf>
/home/hrl/optee/optee_examples/hello_aes/ta/hello_aes_ta.c:245
     8ba:	f04f 0300 	mov.w	r3, #0
     8be:	e00e      	b.n	8de <aes_init+0x2d6>
/home/hrl/optee/optee_examples/hello_aes/ta/hello_aes_ta.c:248
     8c0:	4b23      	ldr	r3, [pc, #140]	; (950 <aes_init+0x348>)
     8c2:	447b      	add	r3, pc
     8c4:	9300      	str	r3, [sp, #0]
     8c6:	f04f 0301 	mov.w	r3, #1
     8ca:	f04f 0201 	mov.w	r2, #1
     8ce:	f04f 01f8 	mov.w	r1, #248	; 0xf8
     8d2:	4820      	ldr	r0, [pc, #128]	; (954 <aes_init+0x34c>)
     8d4:	4478      	add	r0, pc
     8d6:	f008 f99f 	bl	8c18 <trace_printf>
/home/hrl/optee/optee_examples/hello_aes/ta/hello_aes_ta.c:250
     8da:	f04f 0300 	mov.w	r3, #0
/home/hrl/optee/optee_examples/hello_aes/ta/hello_aes_ta.c:251 (discriminator 1)
     8de:	4618      	mov	r0, r3
     8e0:	f107 076c 	add.w	r7, r7, #108	; 0x6c
     8e4:	46bd      	mov	sp, r7
     8e6:	e9dd 4700 	ldrd	r4, r7, [sp]
     8ea:	b002      	add	sp, #8
     8ec:	f85d fb04 	ldr.w	pc, [sp], #4
     8f0:	0000ee02 	.word	0x0000ee02
     8f4:	0000f158 	.word	0x0000f158
     8f8:	0000edd8 	.word	0x0000edd8
     8fc:	0000f11e 	.word	0x0000f11e
     900:	0000edac 	.word	0x0000edac
     904:	0000f0e6 	.word	0x0000f0e6
     908:	0000ed9a 	.word	0x0000ed9a
     90c:	0000f0c0 	.word	0x0000f0c0
     910:	0000ed8a 	.word	0x0000ed8a
     914:	0000f0a0 	.word	0x0000f0a0
     918:	0000ed68 	.word	0x0000ed68
     91c:	0000f06e 	.word	0x0000f06e
     920:	0000ed4c 	.word	0x0000ed4c
     924:	0000f04e 	.word	0x0000f04e
     928:	0000ecec 	.word	0x0000ecec
     92c:	0000efe2 	.word	0x0000efe2
     930:	000128a8 	.word	0x000128a8
     934:	00012886 	.word	0x00012886
     938:	0000ec8c 	.word	0x0000ec8c
     93c:	0000ef6a 	.word	0x0000ef6a
     940:	00012866 	.word	0x00012866
     944:	00012858 	.word	0x00012858
     948:	0000ec5a 	.word	0x0000ec5a
     94c:	0000ef30 	.word	0x0000ef30
     950:	0000ec4e 	.word	0x0000ec4e
     954:	0000ef10 	.word	0x0000ef10

00000958 <aes_encrypt>:
aes_encrypt():
/home/hrl/optee/optee_examples/hello_aes/ta/hello_aes_ta.c:255
     958:	f84d 4d0c 	str.w	r4, [sp, #-12]!
     95c:	e9cd 7e01 	strd	r7, lr, [sp, #4]
     960:	f2ad 4d7c 	subw	sp, sp, #1148	; 0x47c
     964:	af04      	add	r7, sp, #16
     966:	f107 0304 	add.w	r3, r7, #4
     96a:	6018      	str	r0, [r3, #0]
     96c:	463b      	mov	r3, r7
     96e:	6019      	str	r1, [r3, #0]
/home/hrl/optee/optee_examples/hello_aes/ta/hello_aes_ta.c:256
     970:	f04f 0300 	mov.w	r3, #0
     974:	f8c7 3464 	str.w	r3, [r7, #1124]	; 0x464
     978:	f04f 0300 	mov.w	r3, #0
     97c:	f8c7 3460 	str.w	r3, [r7, #1120]	; 0x460
/home/hrl/optee/optee_examples/hello_aes/ta/hello_aes_ta.c:257
     980:	f107 0358 	add.w	r3, r7, #88	; 0x58
     984:	4618      	mov	r0, r3
     986:	f44f 6380 	mov.w	r3, #1024	; 0x400
     98a:	461a      	mov	r2, r3
     98c:	f04f 0100 	mov.w	r1, #0
     990:	f00b f9dd 	bl	bd4e <memset>
/home/hrl/optee/optee_examples/hello_aes/ta/hello_aes_ta.c:263
     994:	f107 0328 	add.w	r3, r7, #40	; 0x28
     998:	461a      	mov	r2, r3
     99a:	f04f 0300 	mov.w	r3, #0
     99e:	f04f 0400 	mov.w	r4, #0
     9a2:	e9c2 3400 	strd	r3, r4, [r2]
     9a6:	e9c2 3402 	strd	r3, r4, [r2, #8]
     9aa:	e9c2 3404 	strd	r3, r4, [r2, #16]
     9ae:	6193      	str	r3, [r2, #24]
/home/hrl/optee/optee_examples/hello_aes/ta/hello_aes_ta.c:264
     9b0:	f107 0308 	add.w	r3, r7, #8
     9b4:	461a      	mov	r2, r3
     9b6:	f04f 0300 	mov.w	r3, #0
     9ba:	f04f 0400 	mov.w	r4, #0
     9be:	e9c2 3400 	strd	r3, r4, [r2]
     9c2:	e9c2 3402 	strd	r3, r4, [r2, #8]
     9c6:	e9c2 3404 	strd	r3, r4, [r2, #16]
     9ca:	e9c2 3406 	strd	r3, r4, [r2, #24]
/home/hrl/optee/optee_examples/hello_aes/ta/hello_aes_ta.c:265
     9ce:	f107 0304 	add.w	r3, r7, #4
     9d2:	f107 0204 	add.w	r2, r7, #4
     9d6:	6812      	ldr	r2, [r2, #0]
     9d8:	601a      	str	r2, [r3, #0]
/home/hrl/optee/optee_examples/hello_aes/ta/hello_aes_ta.c:268
     9da:	4bdd      	ldr	r3, [pc, #884]	; (d50 <aes_encrypt+0x3f8>)
     9dc:	447b      	add	r3, pc
     9de:	9300      	str	r3, [sp, #0]
     9e0:	f04f 0301 	mov.w	r3, #1
     9e4:	f04f 0202 	mov.w	r2, #2
     9e8:	f44f 7186 	mov.w	r1, #268	; 0x10c
     9ec:	48d9      	ldr	r0, [pc, #868]	; (d54 <aes_encrypt+0x3fc>)
     9ee:	4478      	add	r0, pc
     9f0:	f008 f912 	bl	8c18 <trace_printf>
/home/hrl/optee/optee_examples/hello_aes/ta/hello_aes_ta.c:270
     9f4:	4bd8      	ldr	r3, [pc, #864]	; (d58 <aes_encrypt+0x400>)
     9f6:	447b      	add	r3, pc
     9f8:	4618      	mov	r0, r3
     9fa:	f7ff fb2b 	bl	54 <myStrlen>
     9fe:	4603      	mov	r3, r0
     a00:	4618      	mov	r0, r3
     a02:	f7ff fbf7 	bl	1f4 <getKeyIfExists>
     a06:	f8c7 0460 	str.w	r0, [r7, #1120]	; 0x460
/home/hrl/optee/optee_examples/hello_aes/ta/hello_aes_ta.c:276
     a0a:	f8d7 3460 	ldr.w	r3, [r7, #1120]	; 0x460
     a0e:	2b00      	cmp	r3, #0
     a10:	d10f      	bne.n	a32 <aes_encrypt+0xda>
/home/hrl/optee/optee_examples/hello_aes/ta/hello_aes_ta.c:277
     a12:	4bd2      	ldr	r3, [pc, #840]	; (d5c <aes_encrypt+0x404>)
     a14:	447b      	add	r3, pc
     a16:	9300      	str	r3, [sp, #0]
     a18:	f04f 0301 	mov.w	r3, #1
     a1c:	f04f 0201 	mov.w	r2, #1
     a20:	f240 1115 	movw	r1, #277	; 0x115
     a24:	48ce      	ldr	r0, [pc, #824]	; (d60 <aes_encrypt+0x408>)
     a26:	4478      	add	r0, pc
     a28:	f008 f8f6 	bl	8c18 <trace_printf>
/home/hrl/optee/optee_examples/hello_aes/ta/hello_aes_ta.c:278
     a2c:	f04f 0300 	mov.w	r3, #0
     a30:	e184      	b.n	d3c <aes_encrypt+0x3e4>
/home/hrl/optee/optee_examples/hello_aes/ta/hello_aes_ta.c:280
     a32:	4bcc      	ldr	r3, [pc, #816]	; (d64 <aes_encrypt+0x40c>)
     a34:	447b      	add	r3, pc
     a36:	4618      	mov	r0, r3
     a38:	f7ff fb0c 	bl	54 <myStrlen>
     a3c:	4603      	mov	r3, r0
     a3e:	461a      	mov	r2, r3
     a40:	f8d7 1460 	ldr.w	r1, [r7, #1120]	; 0x460
     a44:	4bc8      	ldr	r3, [pc, #800]	; (d68 <aes_encrypt+0x410>)
     a46:	447b      	add	r3, pc
     a48:	4618      	mov	r0, r3
     a4a:	f7ff fb20 	bl	8e <myMemcpy>
/home/hrl/optee/optee_examples/hello_aes/ta/hello_aes_ta.c:281
     a4e:	f107 0350 	add.w	r3, r7, #80	; 0x50
     a52:	461a      	mov	r2, r3
     a54:	f04f 0180 	mov.w	r1, #128	; 0x80
     a58:	f04f 0010 	mov.w	r0, #16
     a5c:	f2ca 0000 	movt	r0, #40960	; 0xa000
     a60:	f00a f97b 	bl	ad5a <TEE_AllocateTransientObject>
     a64:	f8c7 045c 	str.w	r0, [r7, #1116]	; 0x45c
/home/hrl/optee/optee_examples/hello_aes/ta/hello_aes_ta.c:282
     a68:	f8d7 345c 	ldr.w	r3, [r7, #1116]	; 0x45c
     a6c:	9301      	str	r3, [sp, #4]
     a6e:	4bbf      	ldr	r3, [pc, #764]	; (d6c <aes_encrypt+0x414>)
     a70:	447b      	add	r3, pc
     a72:	9300      	str	r3, [sp, #0]
     a74:	f04f 0301 	mov.w	r3, #1
     a78:	f04f 0202 	mov.w	r2, #2
     a7c:	f44f 718d 	mov.w	r1, #282	; 0x11a
     a80:	48bb      	ldr	r0, [pc, #748]	; (d70 <aes_encrypt+0x418>)
     a82:	4478      	add	r0, pc
     a84:	f008 f8c8 	bl	8c18 <trace_printf>
/home/hrl/optee/optee_examples/hello_aes/ta/hello_aes_ta.c:283
     a88:	f107 0044 	add.w	r0, r7, #68	; 0x44
     a8c:	f04f 0310 	mov.w	r3, #16
     a90:	4ab8      	ldr	r2, [pc, #736]	; (d74 <aes_encrypt+0x41c>)
     a92:	447a      	add	r2, pc
     a94:	f04f 4140 	mov.w	r1, #3221225472	; 0xc0000000
     a98:	f00a fa86 	bl	afa8 <TEE_InitRefAttribute>
/home/hrl/optee/optee_examples/hello_aes/ta/hello_aes_ta.c:284
     a9c:	f8d7 345c 	ldr.w	r3, [r7, #1116]	; 0x45c
     aa0:	9301      	str	r3, [sp, #4]
     aa2:	4bb5      	ldr	r3, [pc, #724]	; (d78 <aes_encrypt+0x420>)
     aa4:	447b      	add	r3, pc
     aa6:	9300      	str	r3, [sp, #0]
     aa8:	f04f 0301 	mov.w	r3, #1
     aac:	f04f 0202 	mov.w	r2, #2
     ab0:	f44f 718e 	mov.w	r1, #284	; 0x11c
     ab4:	48b1      	ldr	r0, [pc, #708]	; (d7c <aes_encrypt+0x424>)
     ab6:	4478      	add	r0, pc
     ab8:	f008 f8ae 	bl	8c18 <trace_printf>
/home/hrl/optee/optee_examples/hello_aes/ta/hello_aes_ta.c:285
     abc:	f107 0350 	add.w	r3, r7, #80	; 0x50
     ac0:	681b      	ldr	r3, [r3, #0]
     ac2:	f107 0144 	add.w	r1, r7, #68	; 0x44
     ac6:	f04f 0201 	mov.w	r2, #1
     aca:	4618      	mov	r0, r3
     acc:	f00a f9d5 	bl	ae7a <TEE_PopulateTransientObject>
     ad0:	f8c7 045c 	str.w	r0, [r7, #1116]	; 0x45c
/home/hrl/optee/optee_examples/hello_aes/ta/hello_aes_ta.c:286
     ad4:	f8d7 345c 	ldr.w	r3, [r7, #1116]	; 0x45c
     ad8:	9301      	str	r3, [sp, #4]
     ada:	4ba9      	ldr	r3, [pc, #676]	; (d80 <aes_encrypt+0x428>)
     adc:	447b      	add	r3, pc
     ade:	9300      	str	r3, [sp, #0]
     ae0:	f04f 0301 	mov.w	r3, #1
     ae4:	f04f 0202 	mov.w	r2, #2
     ae8:	f44f 718f 	mov.w	r1, #286	; 0x11e
     aec:	48a5      	ldr	r0, [pc, #660]	; (d84 <aes_encrypt+0x42c>)
     aee:	4478      	add	r0, pc
     af0:	f008 f892 	bl	8c18 <trace_printf>
/home/hrl/optee/optee_examples/hello_aes/ta/hello_aes_ta.c:287
     af4:	f107 0350 	add.w	r3, r7, #80	; 0x50
     af8:	681b      	ldr	r3, [r3, #0]
     afa:	f107 0228 	add.w	r2, r7, #40	; 0x28
     afe:	4611      	mov	r1, r2
     b00:	4618      	mov	r0, r3
     b02:	f009 ff98 	bl	aa36 <TEE_GetObjectInfo>
/home/hrl/optee/optee_examples/hello_aes/ta/hello_aes_ta.c:288
     b06:	f107 0328 	add.w	r3, r7, #40	; 0x28
     b0a:	689b      	ldr	r3, [r3, #8]
     b0c:	f107 0228 	add.w	r2, r7, #40	; 0x28
     b10:	6852      	ldr	r2, [r2, #4]
     b12:	9203      	str	r2, [sp, #12]
     b14:	9302      	str	r3, [sp, #8]
     b16:	4b9c      	ldr	r3, [pc, #624]	; (d88 <aes_encrypt+0x430>)
     b18:	447b      	add	r3, pc
     b1a:	9301      	str	r3, [sp, #4]
     b1c:	4b9b      	ldr	r3, [pc, #620]	; (d8c <aes_encrypt+0x434>)
     b1e:	447b      	add	r3, pc
     b20:	9300      	str	r3, [sp, #0]
     b22:	f04f 0301 	mov.w	r3, #1
     b26:	f04f 0203 	mov.w	r2, #3
     b2a:	f44f 7190 	mov.w	r1, #288	; 0x120
     b2e:	4898      	ldr	r0, [pc, #608]	; (d90 <aes_encrypt+0x438>)
     b30:	4478      	add	r0, pc
     b32:	f008 f871 	bl	8c18 <trace_printf>
/home/hrl/optee/optee_examples/hello_aes/ta/hello_aes_ta.c:289
     b36:	f04f 0380 	mov.w	r3, #128	; 0x80
     b3a:	f04f 0200 	mov.w	r2, #0
     b3e:	f44f 7188 	mov.w	r1, #272	; 0x110
     b42:	f2c1 0100 	movt	r1, #4096	; 0x1000
     b46:	4893      	ldr	r0, [pc, #588]	; (d94 <aes_encrypt+0x43c>)
     b48:	4478      	add	r0, pc
     b4a:	f001 f81d 	bl	1b88 <TEE_AllocateOperation>
     b4e:	f8c7 045c 	str.w	r0, [r7, #1116]	; 0x45c
/home/hrl/optee/optee_examples/hello_aes/ta/hello_aes_ta.c:290
     b52:	4b91      	ldr	r3, [pc, #580]	; (d98 <aes_encrypt+0x440>)
     b54:	447b      	add	r3, pc
     b56:	681b      	ldr	r3, [r3, #0]
     b58:	f107 0208 	add.w	r2, r7, #8
     b5c:	4611      	mov	r1, r2
     b5e:	4618      	mov	r0, r3
     b60:	f001 fcd7 	bl	2512 <TEE_GetOperationInfo>
/home/hrl/optee/optee_examples/hello_aes/ta/hello_aes_ta.c:291
     b64:	f8d7 345c 	ldr.w	r3, [r7, #1116]	; 0x45c
     b68:	9301      	str	r3, [sp, #4]
     b6a:	4b8c      	ldr	r3, [pc, #560]	; (d9c <aes_encrypt+0x444>)
     b6c:	447b      	add	r3, pc
     b6e:	9300      	str	r3, [sp, #0]
     b70:	f04f 0301 	mov.w	r3, #1
     b74:	f04f 0202 	mov.w	r2, #2
     b78:	f240 1123 	movw	r1, #291	; 0x123
     b7c:	4888      	ldr	r0, [pc, #544]	; (da0 <aes_encrypt+0x448>)
     b7e:	4478      	add	r0, pc
     b80:	f008 f84a 	bl	8c18 <trace_printf>
/home/hrl/optee/optee_examples/hello_aes/ta/hello_aes_ta.c:292
     b84:	4b87      	ldr	r3, [pc, #540]	; (da4 <aes_encrypt+0x44c>)
     b86:	447b      	add	r3, pc
     b88:	681a      	ldr	r2, [r3, #0]
     b8a:	f107 0350 	add.w	r3, r7, #80	; 0x50
     b8e:	681b      	ldr	r3, [r3, #0]
     b90:	4619      	mov	r1, r3
     b92:	4610      	mov	r0, r2
     b94:	f001 fdf8 	bl	2788 <TEE_SetOperationKey>
     b98:	f8c7 045c 	str.w	r0, [r7, #1116]	; 0x45c
/home/hrl/optee/optee_examples/hello_aes/ta/hello_aes_ta.c:293
     b9c:	f107 0308 	add.w	r3, r7, #8
     ba0:	691b      	ldr	r3, [r3, #16]
     ba2:	f107 0208 	add.w	r2, r7, #8
     ba6:	6952      	ldr	r2, [r2, #20]
     ba8:	9203      	str	r2, [sp, #12]
     baa:	9302      	str	r3, [sp, #8]
     bac:	4b7e      	ldr	r3, [pc, #504]	; (da8 <aes_encrypt+0x450>)
     bae:	447b      	add	r3, pc
     bb0:	9301      	str	r3, [sp, #4]
     bb2:	4b7e      	ldr	r3, [pc, #504]	; (dac <aes_encrypt+0x454>)
     bb4:	447b      	add	r3, pc
     bb6:	9300      	str	r3, [sp, #0]
     bb8:	f04f 0301 	mov.w	r3, #1
     bbc:	f04f 0203 	mov.w	r2, #3
     bc0:	f240 1125 	movw	r1, #293	; 0x125
     bc4:	487a      	ldr	r0, [pc, #488]	; (db0 <aes_encrypt+0x458>)
     bc6:	4478      	add	r0, pc
     bc8:	f008 f826 	bl	8c18 <trace_printf>
/home/hrl/optee/optee_examples/hello_aes/ta/hello_aes_ta.c:294
     bcc:	f8d7 345c 	ldr.w	r3, [r7, #1116]	; 0x45c
     bd0:	9301      	str	r3, [sp, #4]
     bd2:	4b78      	ldr	r3, [pc, #480]	; (db4 <aes_encrypt+0x45c>)
     bd4:	447b      	add	r3, pc
     bd6:	9300      	str	r3, [sp, #0]
     bd8:	f04f 0301 	mov.w	r3, #1
     bdc:	f04f 0202 	mov.w	r2, #2
     be0:	f44f 7193 	mov.w	r1, #294	; 0x126
     be4:	4874      	ldr	r0, [pc, #464]	; (db8 <aes_encrypt+0x460>)
     be6:	4478      	add	r0, pc
     be8:	f008 f816 	bl	8c18 <trace_printf>
/home/hrl/optee/optee_examples/hello_aes/ta/hello_aes_ta.c:295
     bec:	4b73      	ldr	r3, [pc, #460]	; (dbc <aes_encrypt+0x464>)
     bee:	447b      	add	r3, pc
     bf0:	681b      	ldr	r3, [r3, #0]
     bf2:	f04f 0210 	mov.w	r2, #16
     bf6:	4972      	ldr	r1, [pc, #456]	; (dc0 <aes_encrypt+0x468>)
     bf8:	4479      	add	r1, pc
     bfa:	4618      	mov	r0, r3
     bfc:	f002 f8c4 	bl	2d88 <TEE_CipherInit>
/home/hrl/optee/optee_examples/hello_aes/ta/hello_aes_ta.c:296
     c00:	463b      	mov	r3, r7
     c02:	681b      	ldr	r3, [r3, #0]
     c04:	685b      	ldr	r3, [r3, #4]
     c06:	f04f 0100 	mov.w	r1, #0
     c0a:	4618      	mov	r0, r3
     c0c:	f000 ff58 	bl	1ac0 <TEE_Malloc>
     c10:	f8c7 0464 	str.w	r0, [r7, #1124]	; 0x464
/home/hrl/optee/optee_examples/hello_aes/ta/hello_aes_ta.c:297
     c14:	463b      	mov	r3, r7
     c16:	681b      	ldr	r3, [r3, #0]
     c18:	685b      	ldr	r3, [r3, #4]
     c1a:	f8c7 3458 	str.w	r3, [r7, #1112]	; 0x458
/home/hrl/optee/optee_examples/hello_aes/ta/hello_aes_ta.c:298
     c1e:	463b      	mov	r3, r7
     c20:	681b      	ldr	r3, [r3, #0]
     c22:	6819      	ldr	r1, [r3, #0]
     c24:	463b      	mov	r3, r7
     c26:	681b      	ldr	r3, [r3, #0]
     c28:	685b      	ldr	r3, [r3, #4]
     c2a:	461a      	mov	r2, r3
     c2c:	f8d7 0464 	ldr.w	r0, [r7, #1124]	; 0x464
     c30:	f000 fe62 	bl	18f8 <TEE_MemMove>
/home/hrl/optee/optee_examples/hello_aes/ta/hello_aes_ta.c:299
     c34:	4b63      	ldr	r3, [pc, #396]	; (dc4 <aes_encrypt+0x46c>)
     c36:	447b      	add	r3, pc
     c38:	9300      	str	r3, [sp, #0]
     c3a:	f04f 0301 	mov.w	r3, #1
     c3e:	f04f 0203 	mov.w	r2, #3
     c42:	f240 112b 	movw	r1, #299	; 0x12b
     c46:	4860      	ldr	r0, [pc, #384]	; (dc8 <aes_encrypt+0x470>)
     c48:	4478      	add	r0, pc
     c4a:	f007 ffe5 	bl	8c18 <trace_printf>
/home/hrl/optee/optee_examples/hello_aes/ta/hello_aes_ta.c:300
     c4e:	f8d7 3464 	ldr.w	r3, [r7, #1124]	; 0x464
     c52:	9301      	str	r3, [sp, #4]
     c54:	4b5d      	ldr	r3, [pc, #372]	; (dcc <aes_encrypt+0x474>)
     c56:	447b      	add	r3, pc
     c58:	9300      	str	r3, [sp, #0]
     c5a:	f04f 0301 	mov.w	r3, #1
     c5e:	f04f 0202 	mov.w	r2, #2
     c62:	f44f 7196 	mov.w	r1, #300	; 0x12c
     c66:	485a      	ldr	r0, [pc, #360]	; (dd0 <aes_encrypt+0x478>)
     c68:	4478      	add	r0, pc
     c6a:	f007 ffd5 	bl	8c18 <trace_printf>
/home/hrl/optee/optee_examples/hello_aes/ta/hello_aes_ta.c:301
     c6e:	f107 0354 	add.w	r3, r7, #84	; 0x54
     c72:	f44f 6280 	mov.w	r2, #1024	; 0x400
     c76:	601a      	str	r2, [r3, #0]
/home/hrl/optee/optee_examples/hello_aes/ta/hello_aes_ta.c:302
     c78:	4b56      	ldr	r3, [pc, #344]	; (dd4 <aes_encrypt+0x47c>)
     c7a:	447b      	add	r3, pc
     c7c:	6818      	ldr	r0, [r3, #0]
     c7e:	f107 0258 	add.w	r2, r7, #88	; 0x58
     c82:	f107 0354 	add.w	r3, r7, #84	; 0x54
     c86:	9300      	str	r3, [sp, #0]
     c88:	4613      	mov	r3, r2
     c8a:	f8d7 2458 	ldr.w	r2, [r7, #1112]	; 0x458
     c8e:	f8d7 1464 	ldr.w	r1, [r7, #1124]	; 0x464
     c92:	f002 fb2b 	bl	32ec <TEE_CipherDoFinal>
     c96:	f8c7 045c 	str.w	r0, [r7, #1116]	; 0x45c
/home/hrl/optee/optee_examples/hello_aes/ta/hello_aes_ta.c:303
     c9a:	f107 0354 	add.w	r3, r7, #84	; 0x54
     c9e:	681b      	ldr	r3, [r3, #0]
     ca0:	9301      	str	r3, [sp, #4]
     ca2:	4b4d      	ldr	r3, [pc, #308]	; (dd8 <aes_encrypt+0x480>)
     ca4:	447b      	add	r3, pc
     ca6:	9300      	str	r3, [sp, #0]
     ca8:	f04f 0301 	mov.w	r3, #1
     cac:	f04f 0202 	mov.w	r2, #2
     cb0:	f240 112f 	movw	r1, #303	; 0x12f
     cb4:	4849      	ldr	r0, [pc, #292]	; (ddc <aes_encrypt+0x484>)
     cb6:	4478      	add	r0, pc
     cb8:	f007 ffae 	bl	8c18 <trace_printf>
/home/hrl/optee/optee_examples/hello_aes/ta/hello_aes_ta.c:304
     cbc:	f107 0358 	add.w	r3, r7, #88	; 0x58
     cc0:	9301      	str	r3, [sp, #4]
     cc2:	4b47      	ldr	r3, [pc, #284]	; (de0 <aes_encrypt+0x488>)
     cc4:	447b      	add	r3, pc
     cc6:	9300      	str	r3, [sp, #0]
     cc8:	f04f 0301 	mov.w	r3, #1
     ccc:	f04f 0202 	mov.w	r2, #2
     cd0:	f44f 7198 	mov.w	r1, #304	; 0x130
     cd4:	4843      	ldr	r0, [pc, #268]	; (de4 <aes_encrypt+0x48c>)
     cd6:	4478      	add	r0, pc
     cd8:	f007 ff9e 	bl	8c18 <trace_printf>
/home/hrl/optee/optee_examples/hello_aes/ta/hello_aes_ta.c:305
     cdc:	f8d7 345c 	ldr.w	r3, [r7, #1116]	; 0x45c
     ce0:	9301      	str	r3, [sp, #4]
     ce2:	4b41      	ldr	r3, [pc, #260]	; (de8 <aes_encrypt+0x490>)
     ce4:	447b      	add	r3, pc
     ce6:	9300      	str	r3, [sp, #0]
     ce8:	f04f 0301 	mov.w	r3, #1
     cec:	f04f 0202 	mov.w	r2, #2
     cf0:	f240 1131 	movw	r1, #305	; 0x131
     cf4:	483d      	ldr	r0, [pc, #244]	; (dec <aes_encrypt+0x494>)
     cf6:	4478      	add	r0, pc
     cf8:	f007 ff8e 	bl	8c18 <trace_printf>
/home/hrl/optee/optee_examples/hello_aes/ta/hello_aes_ta.c:307
     cfc:	463b      	mov	r3, r7
     cfe:	681b      	ldr	r3, [r3, #0]
     d00:	681c      	ldr	r4, [r3, #0]
     d02:	f107 0358 	add.w	r3, r7, #88	; 0x58
     d06:	4618      	mov	r0, r3
     d08:	f7ff f9a4 	bl	54 <myStrlen>
     d0c:	4603      	mov	r3, r0
     d0e:	f103 0301 	add.w	r3, r3, #1
     d12:	461a      	mov	r2, r3
     d14:	f107 0358 	add.w	r3, r7, #88	; 0x58
     d18:	4619      	mov	r1, r3
     d1a:	4620      	mov	r0, r4
     d1c:	f000 fdec 	bl	18f8 <TEE_MemMove>
/home/hrl/optee/optee_examples/hello_aes/ta/hello_aes_ta.c:308
     d20:	f107 0358 	add.w	r3, r7, #88	; 0x58
     d24:	4618      	mov	r0, r3
     d26:	f7ff f995 	bl	54 <myStrlen>
     d2a:	4603      	mov	r3, r0
     d2c:	f103 0301 	add.w	r3, r3, #1
     d30:	461a      	mov	r2, r3
     d32:	463b      	mov	r3, r7
     d34:	681b      	ldr	r3, [r3, #0]
     d36:	605a      	str	r2, [r3, #4]
/home/hrl/optee/optee_examples/hello_aes/ta/hello_aes_ta.c:309
     d38:	f04f 0300 	mov.w	r3, #0
/home/hrl/optee/optee_examples/hello_aes/ta/hello_aes_ta.c:310 (discriminator 1)
     d3c:	4618      	mov	r0, r3
     d3e:	f207 476c 	addw	r7, r7, #1132	; 0x46c
     d42:	46bd      	mov	sp, r7
     d44:	e9dd 4700 	ldrd	r4, r7, [sp]
     d48:	b002      	add	sp, #8
     d4a:	f85d fb04 	ldr.w	pc, [sp], #4
     d4e:	bf00      	nop
     d50:	0000eb4c 	.word	0x0000eb4c
     d54:	0000ee02 	.word	0x0000ee02
     d58:	000126f2 	.word	0x000126f2
     d5c:	0000eb28 	.word	0x0000eb28
     d60:	0000edca 	.word	0x0000edca
     d64:	000126b4 	.word	0x000126b4
     d68:	000126a2 	.word	0x000126a2
     d6c:	0000eae8 	.word	0x0000eae8
     d70:	0000ed6e 	.word	0x0000ed6e
     d74:	00012656 	.word	0x00012656
     d78:	0000ead0 	.word	0x0000ead0
     d7c:	0000ed3a 	.word	0x0000ed3a
     d80:	0000eab4 	.word	0x0000eab4
     d84:	0000ed02 	.word	0x0000ed02
     d88:	0000ecd8 	.word	0x0000ecd8
     d8c:	0000ea92 	.word	0x0000ea92
     d90:	0000ecc0 	.word	0x0000ecc0
     d94:	00012598 	.word	0x00012598
     d98:	0001258c 	.word	0x0001258c
     d9c:	0000ea74 	.word	0x0000ea74
     da0:	0000ec72 	.word	0x0000ec72
     da4:	0001255a 	.word	0x0001255a
     da8:	0000ec42 	.word	0x0000ec42
     dac:	0000e9fc 	.word	0x0000e9fc
     db0:	0000ec2a 	.word	0x0000ec2a
     db4:	0000ea24 	.word	0x0000ea24
     db8:	0000ec0a 	.word	0x0000ec0a
     dbc:	000124f2 	.word	0x000124f2
     dc0:	00012500 	.word	0x00012500
     dc4:	0000e9e2 	.word	0x0000e9e2
     dc8:	0000eba8 	.word	0x0000eba8
     dcc:	0000e7c6 	.word	0x0000e7c6
     dd0:	0000eb88 	.word	0x0000eb88
     dd4:	00012466 	.word	0x00012466
     dd8:	0000e990 	.word	0x0000e990
     ddc:	0000eb3a 	.word	0x0000eb3a
     de0:	0000e978 	.word	0x0000e978
     de4:	0000eb1a 	.word	0x0000eb1a
     de8:	0000e96c 	.word	0x0000e96c
     dec:	0000eafa 	.word	0x0000eafa

00000df0 <aes_decrypt>:
aes_decrypt():
/home/hrl/optee/optee_examples/hello_aes/ta/hello_aes_ta.c:314
     df0:	f84d 4d0c 	str.w	r4, [sp, #-12]!
     df4:	e9cd 7e01 	strd	r7, lr, [sp, #4]
     df8:	f6ad 0d84 	subw	sp, sp, #2180	; 0x884
     dfc:	af04      	add	r7, sp, #16
     dfe:	f107 0304 	add.w	r3, r7, #4
     e02:	6018      	str	r0, [r3, #0]
     e04:	463b      	mov	r3, r7
     e06:	6019      	str	r1, [r3, #0]
/home/hrl/optee/optee_examples/hello_aes/ta/hello_aes_ta.c:315
     e08:	f04f 0300 	mov.w	r3, #0
     e0c:	f8c7 3868 	str.w	r3, [r7, #2152]	; 0x868
     e10:	f04f 0300 	mov.w	r3, #0
     e14:	f8c7 3864 	str.w	r3, [r7, #2148]	; 0x864
/home/hrl/optee/optee_examples/hello_aes/ta/hello_aes_ta.c:316
     e18:	f207 435c 	addw	r3, r7, #1116	; 0x45c
     e1c:	4618      	mov	r0, r3
     e1e:	f44f 6380 	mov.w	r3, #1024	; 0x400
     e22:	461a      	mov	r2, r3
     e24:	f04f 0100 	mov.w	r1, #0
     e28:	f00a ff91 	bl	bd4e <memset>
/home/hrl/optee/optee_examples/hello_aes/ta/hello_aes_ta.c:317
     e2c:	f107 035c 	add.w	r3, r7, #92	; 0x5c
     e30:	4618      	mov	r0, r3
     e32:	f44f 6380 	mov.w	r3, #1024	; 0x400
     e36:	461a      	mov	r2, r3
     e38:	f04f 0100 	mov.w	r1, #0
     e3c:	f00a ff87 	bl	bd4e <memset>
/home/hrl/optee/optee_examples/hello_aes/ta/hello_aes_ta.c:325
     e40:	463b      	mov	r3, r7
     e42:	463a      	mov	r2, r7
     e44:	6812      	ldr	r2, [r2, #0]
     e46:	601a      	str	r2, [r3, #0]
/home/hrl/optee/optee_examples/hello_aes/ta/hello_aes_ta.c:326
     e48:	f107 0304 	add.w	r3, r7, #4
     e4c:	f107 0204 	add.w	r2, r7, #4
     e50:	6812      	ldr	r2, [r2, #0]
     e52:	601a      	str	r2, [r3, #0]
/home/hrl/optee/optee_examples/hello_aes/ta/hello_aes_ta.c:328
     e54:	f8df 34a4 	ldr.w	r3, [pc, #1188]	; 12fc <aes_decrypt+0x50c>
     e58:	447b      	add	r3, pc
     e5a:	9300      	str	r3, [sp, #0]
     e5c:	f04f 0301 	mov.w	r3, #1
     e60:	f04f 0202 	mov.w	r2, #2
     e64:	f44f 71a4 	mov.w	r1, #328	; 0x148
     e68:	f8df 0494 	ldr.w	r0, [pc, #1172]	; 1300 <aes_decrypt+0x510>
     e6c:	4478      	add	r0, pc
     e6e:	f007 fed3 	bl	8c18 <trace_printf>
/home/hrl/optee/optee_examples/hello_aes/ta/hello_aes_ta.c:330
     e72:	f8df 3490 	ldr.w	r3, [pc, #1168]	; 1304 <aes_decrypt+0x514>
     e76:	447b      	add	r3, pc
     e78:	4618      	mov	r0, r3
     e7a:	f7ff f8eb 	bl	54 <myStrlen>
     e7e:	4603      	mov	r3, r0
     e80:	4618      	mov	r0, r3
     e82:	f7ff f9b7 	bl	1f4 <getKeyIfExists>
     e86:	f8c7 0864 	str.w	r0, [r7, #2148]	; 0x864
/home/hrl/optee/optee_examples/hello_aes/ta/hello_aes_ta.c:331
     e8a:	f8d7 3864 	ldr.w	r3, [r7, #2148]	; 0x864
     e8e:	2b00      	cmp	r3, #0
     e90:	d111      	bne.n	eb6 <aes_decrypt+0xc6>
/home/hrl/optee/optee_examples/hello_aes/ta/hello_aes_ta.c:332
     e92:	f8df 3474 	ldr.w	r3, [pc, #1140]	; 1308 <aes_decrypt+0x518>
     e96:	447b      	add	r3, pc
     e98:	9300      	str	r3, [sp, #0]
     e9a:	f04f 0301 	mov.w	r3, #1
     e9e:	f04f 0201 	mov.w	r2, #1
     ea2:	f44f 71a6 	mov.w	r1, #332	; 0x14c
     ea6:	f8df 0464 	ldr.w	r0, [pc, #1124]	; 130c <aes_decrypt+0x51c>
     eaa:	4478      	add	r0, pc
     eac:	f007 feb4 	bl	8c18 <trace_printf>
/home/hrl/optee/optee_examples/hello_aes/ta/hello_aes_ta.c:333
     eb0:	f04f 0300 	mov.w	r3, #0
     eb4:	e218      	b.n	12e8 <aes_decrypt+0x4f8>
/home/hrl/optee/optee_examples/hello_aes/ta/hello_aes_ta.c:335
     eb6:	f8df 3458 	ldr.w	r3, [pc, #1112]	; 1310 <aes_decrypt+0x520>
     eba:	447b      	add	r3, pc
     ebc:	4618      	mov	r0, r3
     ebe:	f7ff f8c9 	bl	54 <myStrlen>
     ec2:	4603      	mov	r3, r0
     ec4:	461a      	mov	r2, r3
     ec6:	f8d7 1864 	ldr.w	r1, [r7, #2148]	; 0x864
     eca:	f8df 3448 	ldr.w	r3, [pc, #1096]	; 1314 <aes_decrypt+0x524>
     ece:	447b      	add	r3, pc
     ed0:	4618      	mov	r0, r3
     ed2:	f7ff f8dc 	bl	8e <myMemcpy>
/home/hrl/optee/optee_examples/hello_aes/ta/hello_aes_ta.c:337
     ed6:	f04f 0380 	mov.w	r3, #128	; 0x80
     eda:	f04f 0201 	mov.w	r2, #1
     ede:	f44f 7188 	mov.w	r1, #272	; 0x110
     ee2:	f2c1 0100 	movt	r1, #4096	; 0x1000
     ee6:	f8df 0430 	ldr.w	r0, [pc, #1072]	; 1318 <aes_decrypt+0x528>
     eea:	4478      	add	r0, pc
     eec:	f000 fe4c 	bl	1b88 <TEE_AllocateOperation>
     ef0:	f8c7 0860 	str.w	r0, [r7, #2144]	; 0x860
/home/hrl/optee/optee_examples/hello_aes/ta/hello_aes_ta.c:338
     ef4:	f8d7 3860 	ldr.w	r3, [r7, #2144]	; 0x860
     ef8:	9301      	str	r3, [sp, #4]
     efa:	f8df 3420 	ldr.w	r3, [pc, #1056]	; 131c <aes_decrypt+0x52c>
     efe:	447b      	add	r3, pc
     f00:	9300      	str	r3, [sp, #0]
     f02:	f04f 0301 	mov.w	r3, #1
     f06:	f04f 0202 	mov.w	r2, #2
     f0a:	f44f 71a9 	mov.w	r1, #338	; 0x152
     f0e:	f8df 0410 	ldr.w	r0, [pc, #1040]	; 1320 <aes_decrypt+0x530>
     f12:	4478      	add	r0, pc
     f14:	f007 fe80 	bl	8c18 <trace_printf>
/home/hrl/optee/optee_examples/hello_aes/ta/hello_aes_ta.c:339
     f18:	f8df 3408 	ldr.w	r3, [pc, #1032]	; 1324 <aes_decrypt+0x534>
     f1c:	447b      	add	r3, pc
     f1e:	9301      	str	r3, [sp, #4]
     f20:	f8df 3404 	ldr.w	r3, [pc, #1028]	; 1328 <aes_decrypt+0x538>
     f24:	447b      	add	r3, pc
     f26:	9300      	str	r3, [sp, #0]
     f28:	f04f 0301 	mov.w	r3, #1
     f2c:	f04f 0202 	mov.w	r2, #2
     f30:	f240 1153 	movw	r1, #339	; 0x153
     f34:	48fd      	ldr	r0, [pc, #1012]	; (132c <aes_decrypt+0x53c>)
     f36:	4478      	add	r0, pc
     f38:	f007 fe6e 	bl	8c18 <trace_printf>
/home/hrl/optee/optee_examples/hello_aes/ta/hello_aes_ta.c:340
     f3c:	4bfc      	ldr	r3, [pc, #1008]	; (1330 <aes_decrypt+0x540>)
     f3e:	447b      	add	r3, pc
     f40:	9301      	str	r3, [sp, #4]
     f42:	4bfc      	ldr	r3, [pc, #1008]	; (1334 <aes_decrypt+0x544>)
     f44:	447b      	add	r3, pc
     f46:	9300      	str	r3, [sp, #0]
     f48:	f04f 0301 	mov.w	r3, #1
     f4c:	f04f 0202 	mov.w	r2, #2
     f50:	f44f 71aa 	mov.w	r1, #340	; 0x154
     f54:	48f8      	ldr	r0, [pc, #992]	; (1338 <aes_decrypt+0x548>)
     f56:	4478      	add	r0, pc
     f58:	f007 fe5e 	bl	8c18 <trace_printf>
/home/hrl/optee/optee_examples/hello_aes/ta/hello_aes_ta.c:341
     f5c:	f107 0354 	add.w	r3, r7, #84	; 0x54
     f60:	461a      	mov	r2, r3
     f62:	f04f 0180 	mov.w	r1, #128	; 0x80
     f66:	f04f 0010 	mov.w	r0, #16
     f6a:	f2ca 0000 	movt	r0, #40960	; 0xa000
     f6e:	f009 fef4 	bl	ad5a <TEE_AllocateTransientObject>
     f72:	f8c7 0860 	str.w	r0, [r7, #2144]	; 0x860
/home/hrl/optee/optee_examples/hello_aes/ta/hello_aes_ta.c:342
     f76:	f8d7 3860 	ldr.w	r3, [r7, #2144]	; 0x860
     f7a:	9301      	str	r3, [sp, #4]
     f7c:	4bef      	ldr	r3, [pc, #956]	; (133c <aes_decrypt+0x54c>)
     f7e:	447b      	add	r3, pc
     f80:	9300      	str	r3, [sp, #0]
     f82:	f04f 0301 	mov.w	r3, #1
     f86:	f04f 0202 	mov.w	r2, #2
     f8a:	f44f 71ab 	mov.w	r1, #342	; 0x156
     f8e:	48ec      	ldr	r0, [pc, #944]	; (1340 <aes_decrypt+0x550>)
     f90:	4478      	add	r0, pc
     f92:	f007 fe41 	bl	8c18 <trace_printf>
/home/hrl/optee/optee_examples/hello_aes/ta/hello_aes_ta.c:343
     f96:	f107 0048 	add.w	r0, r7, #72	; 0x48
     f9a:	f04f 0310 	mov.w	r3, #16
     f9e:	4ae9      	ldr	r2, [pc, #932]	; (1344 <aes_decrypt+0x554>)
     fa0:	447a      	add	r2, pc
     fa2:	f04f 4140 	mov.w	r1, #3221225472	; 0xc0000000
     fa6:	f009 ffff 	bl	afa8 <TEE_InitRefAttribute>
/home/hrl/optee/optee_examples/hello_aes/ta/hello_aes_ta.c:344
     faa:	f8d7 3860 	ldr.w	r3, [r7, #2144]	; 0x860
     fae:	9301      	str	r3, [sp, #4]
     fb0:	4be5      	ldr	r3, [pc, #916]	; (1348 <aes_decrypt+0x558>)
     fb2:	447b      	add	r3, pc
     fb4:	9300      	str	r3, [sp, #0]
     fb6:	f04f 0301 	mov.w	r3, #1
     fba:	f04f 0202 	mov.w	r2, #2
     fbe:	f44f 71ac 	mov.w	r1, #344	; 0x158
     fc2:	48e2      	ldr	r0, [pc, #904]	; (134c <aes_decrypt+0x55c>)
     fc4:	4478      	add	r0, pc
     fc6:	f007 fe27 	bl	8c18 <trace_printf>
/home/hrl/optee/optee_examples/hello_aes/ta/hello_aes_ta.c:345
     fca:	f107 0354 	add.w	r3, r7, #84	; 0x54
     fce:	681b      	ldr	r3, [r3, #0]
     fd0:	f107 0148 	add.w	r1, r7, #72	; 0x48
     fd4:	f04f 0201 	mov.w	r2, #1
     fd8:	4618      	mov	r0, r3
     fda:	f009 ff4e 	bl	ae7a <TEE_PopulateTransientObject>
     fde:	f8c7 0860 	str.w	r0, [r7, #2144]	; 0x860
/home/hrl/optee/optee_examples/hello_aes/ta/hello_aes_ta.c:346
     fe2:	f8d7 3860 	ldr.w	r3, [r7, #2144]	; 0x860
     fe6:	9301      	str	r3, [sp, #4]
     fe8:	4bd9      	ldr	r3, [pc, #868]	; (1350 <aes_decrypt+0x560>)
     fea:	447b      	add	r3, pc
     fec:	9300      	str	r3, [sp, #0]
     fee:	f04f 0301 	mov.w	r3, #1
     ff2:	f04f 0202 	mov.w	r2, #2
     ff6:	f44f 71ad 	mov.w	r1, #346	; 0x15a
     ffa:	48d6      	ldr	r0, [pc, #856]	; (1354 <aes_decrypt+0x564>)
     ffc:	4478      	add	r0, pc
     ffe:	f007 fe0b 	bl	8c18 <trace_printf>
/home/hrl/optee/optee_examples/hello_aes/ta/hello_aes_ta.c:347
    1002:	f107 0354 	add.w	r3, r7, #84	; 0x54
    1006:	681b      	ldr	r3, [r3, #0]
    1008:	f107 022c 	add.w	r2, r7, #44	; 0x2c
    100c:	4611      	mov	r1, r2
    100e:	4618      	mov	r0, r3
    1010:	f009 fd11 	bl	aa36 <TEE_GetObjectInfo>
/home/hrl/optee/optee_examples/hello_aes/ta/hello_aes_ta.c:348
    1014:	f107 032c 	add.w	r3, r7, #44	; 0x2c
    1018:	689b      	ldr	r3, [r3, #8]
    101a:	f107 022c 	add.w	r2, r7, #44	; 0x2c
    101e:	6852      	ldr	r2, [r2, #4]
    1020:	9203      	str	r2, [sp, #12]
    1022:	9302      	str	r3, [sp, #8]
    1024:	4bcc      	ldr	r3, [pc, #816]	; (1358 <aes_decrypt+0x568>)
    1026:	447b      	add	r3, pc
    1028:	9301      	str	r3, [sp, #4]
    102a:	4bcc      	ldr	r3, [pc, #816]	; (135c <aes_decrypt+0x56c>)
    102c:	447b      	add	r3, pc
    102e:	9300      	str	r3, [sp, #0]
    1030:	f04f 0301 	mov.w	r3, #1
    1034:	f04f 0203 	mov.w	r2, #3
    1038:	f44f 71ae 	mov.w	r1, #348	; 0x15c
    103c:	48c8      	ldr	r0, [pc, #800]	; (1360 <aes_decrypt+0x570>)
    103e:	4478      	add	r0, pc
    1040:	f007 fdea 	bl	8c18 <trace_printf>
/home/hrl/optee/optee_examples/hello_aes/ta/hello_aes_ta.c:349
    1044:	4bc7      	ldr	r3, [pc, #796]	; (1364 <aes_decrypt+0x574>)
    1046:	447b      	add	r3, pc
    1048:	681b      	ldr	r3, [r3, #0]
    104a:	f107 020c 	add.w	r2, r7, #12
    104e:	4611      	mov	r1, r2
    1050:	4618      	mov	r0, r3
    1052:	f001 fa5e 	bl	2512 <TEE_GetOperationInfo>
/home/hrl/optee/optee_examples/hello_aes/ta/hello_aes_ta.c:350
    1056:	f8d7 3860 	ldr.w	r3, [r7, #2144]	; 0x860
    105a:	9301      	str	r3, [sp, #4]
    105c:	4bc2      	ldr	r3, [pc, #776]	; (1368 <aes_decrypt+0x578>)
    105e:	447b      	add	r3, pc
    1060:	9300      	str	r3, [sp, #0]
    1062:	f04f 0301 	mov.w	r3, #1
    1066:	f04f 0202 	mov.w	r2, #2
    106a:	f44f 71af 	mov.w	r1, #350	; 0x15e
    106e:	48bf      	ldr	r0, [pc, #764]	; (136c <aes_decrypt+0x57c>)
    1070:	4478      	add	r0, pc
    1072:	f007 fdd1 	bl	8c18 <trace_printf>
/home/hrl/optee/optee_examples/hello_aes/ta/hello_aes_ta.c:351
    1076:	4bbe      	ldr	r3, [pc, #760]	; (1370 <aes_decrypt+0x580>)
    1078:	447b      	add	r3, pc
    107a:	681a      	ldr	r2, [r3, #0]
    107c:	f107 0354 	add.w	r3, r7, #84	; 0x54
    1080:	681b      	ldr	r3, [r3, #0]
    1082:	4619      	mov	r1, r3
    1084:	4610      	mov	r0, r2
    1086:	f001 fb7f 	bl	2788 <TEE_SetOperationKey>
    108a:	f8c7 0860 	str.w	r0, [r7, #2144]	; 0x860
/home/hrl/optee/optee_examples/hello_aes/ta/hello_aes_ta.c:352
    108e:	f107 030c 	add.w	r3, r7, #12
    1092:	691b      	ldr	r3, [r3, #16]
    1094:	f107 020c 	add.w	r2, r7, #12
    1098:	6952      	ldr	r2, [r2, #20]
    109a:	9203      	str	r2, [sp, #12]
    109c:	9302      	str	r3, [sp, #8]
    109e:	4bb5      	ldr	r3, [pc, #724]	; (1374 <aes_decrypt+0x584>)
    10a0:	447b      	add	r3, pc
    10a2:	9301      	str	r3, [sp, #4]
    10a4:	4bb4      	ldr	r3, [pc, #720]	; (1378 <aes_decrypt+0x588>)
    10a6:	447b      	add	r3, pc
    10a8:	9300      	str	r3, [sp, #0]
    10aa:	f04f 0301 	mov.w	r3, #1
    10ae:	f04f 0203 	mov.w	r2, #3
    10b2:	f44f 71b0 	mov.w	r1, #352	; 0x160
    10b6:	48b1      	ldr	r0, [pc, #708]	; (137c <aes_decrypt+0x58c>)
    10b8:	4478      	add	r0, pc
    10ba:	f007 fdad 	bl	8c18 <trace_printf>
/home/hrl/optee/optee_examples/hello_aes/ta/hello_aes_ta.c:353
    10be:	f8d7 3860 	ldr.w	r3, [r7, #2144]	; 0x860
    10c2:	9301      	str	r3, [sp, #4]
    10c4:	4bae      	ldr	r3, [pc, #696]	; (1380 <aes_decrypt+0x590>)
    10c6:	447b      	add	r3, pc
    10c8:	9300      	str	r3, [sp, #0]
    10ca:	f04f 0301 	mov.w	r3, #1
    10ce:	f04f 0202 	mov.w	r2, #2
    10d2:	f240 1161 	movw	r1, #353	; 0x161
    10d6:	48ab      	ldr	r0, [pc, #684]	; (1384 <aes_decrypt+0x594>)
    10d8:	4478      	add	r0, pc
    10da:	f007 fd9d 	bl	8c18 <trace_printf>
/home/hrl/optee/optee_examples/hello_aes/ta/hello_aes_ta.c:354
    10de:	4baa      	ldr	r3, [pc, #680]	; (1388 <aes_decrypt+0x598>)
    10e0:	447b      	add	r3, pc
    10e2:	681b      	ldr	r3, [r3, #0]
    10e4:	f04f 0210 	mov.w	r2, #16
    10e8:	49a8      	ldr	r1, [pc, #672]	; (138c <aes_decrypt+0x59c>)
    10ea:	4479      	add	r1, pc
    10ec:	4618      	mov	r0, r3
    10ee:	f001 fe4b 	bl	2d88 <TEE_CipherInit>
/home/hrl/optee/optee_examples/hello_aes/ta/hello_aes_ta.c:355
    10f2:	4ba7      	ldr	r3, [pc, #668]	; (1390 <aes_decrypt+0x5a0>)
    10f4:	447b      	add	r3, pc
    10f6:	9300      	str	r3, [sp, #0]
    10f8:	f04f 0301 	mov.w	r3, #1
    10fc:	f04f 0202 	mov.w	r2, #2
    1100:	f240 1163 	movw	r1, #355	; 0x163
    1104:	48a3      	ldr	r0, [pc, #652]	; (1394 <aes_decrypt+0x5a4>)
    1106:	4478      	add	r0, pc
    1108:	f007 fd86 	bl	8c18 <trace_printf>
/home/hrl/optee/optee_examples/hello_aes/ta/hello_aes_ta.c:358
    110c:	463b      	mov	r3, r7
    110e:	681b      	ldr	r3, [r3, #0]
    1110:	685b      	ldr	r3, [r3, #4]
    1112:	f04f 0100 	mov.w	r1, #0
    1116:	4618      	mov	r0, r3
    1118:	f000 fcd2 	bl	1ac0 <TEE_Malloc>
    111c:	f8c7 0868 	str.w	r0, [r7, #2152]	; 0x868
/home/hrl/optee/optee_examples/hello_aes/ta/hello_aes_ta.c:359
    1120:	463b      	mov	r3, r7
    1122:	681b      	ldr	r3, [r3, #0]
    1124:	685b      	ldr	r3, [r3, #4]
    1126:	f8c7 385c 	str.w	r3, [r7, #2140]	; 0x85c
/home/hrl/optee/optee_examples/hello_aes/ta/hello_aes_ta.c:361
    112a:	463b      	mov	r3, r7
    112c:	681b      	ldr	r3, [r3, #0]
    112e:	6819      	ldr	r1, [r3, #0]
    1130:	463b      	mov	r3, r7
    1132:	681b      	ldr	r3, [r3, #0]
    1134:	685b      	ldr	r3, [r3, #4]
    1136:	461a      	mov	r2, r3
    1138:	f8d7 0868 	ldr.w	r0, [r7, #2152]	; 0x868
    113c:	f000 fbdc 	bl	18f8 <TEE_MemMove>
/home/hrl/optee/optee_examples/hello_aes/ta/hello_aes_ta.c:362
    1140:	f8d7 3868 	ldr.w	r3, [r7, #2152]	; 0x868
    1144:	9301      	str	r3, [sp, #4]
    1146:	4b94      	ldr	r3, [pc, #592]	; (1398 <aes_decrypt+0x5a8>)
    1148:	447b      	add	r3, pc
    114a:	9300      	str	r3, [sp, #0]
    114c:	f04f 0301 	mov.w	r3, #1
    1150:	f04f 0202 	mov.w	r2, #2
    1154:	f44f 71b5 	mov.w	r1, #362	; 0x16a
    1158:	4890      	ldr	r0, [pc, #576]	; (139c <aes_decrypt+0x5ac>)
    115a:	4478      	add	r0, pc
    115c:	f007 fd5c 	bl	8c18 <trace_printf>
/home/hrl/optee/optee_examples/hello_aes/ta/hello_aes_ta.c:363
    1160:	f107 0358 	add.w	r3, r7, #88	; 0x58
    1164:	f44f 6280 	mov.w	r2, #1024	; 0x400
    1168:	601a      	str	r2, [r3, #0]
/home/hrl/optee/optee_examples/hello_aes/ta/hello_aes_ta.c:364
    116a:	4b8d      	ldr	r3, [pc, #564]	; (13a0 <aes_decrypt+0x5b0>)
    116c:	447b      	add	r3, pc
    116e:	6818      	ldr	r0, [r3, #0]
    1170:	f207 425c 	addw	r2, r7, #1116	; 0x45c
    1174:	f107 0358 	add.w	r3, r7, #88	; 0x58
    1178:	9300      	str	r3, [sp, #0]
    117a:	4613      	mov	r3, r2
    117c:	f8d7 285c 	ldr.w	r2, [r7, #2140]	; 0x85c
    1180:	f8d7 1868 	ldr.w	r1, [r7, #2152]	; 0x868
    1184:	f002 f8b2 	bl	32ec <TEE_CipherDoFinal>
    1188:	f8c7 0860 	str.w	r0, [r7, #2144]	; 0x860
/home/hrl/optee/optee_examples/hello_aes/ta/hello_aes_ta.c:365
    118c:	f107 0358 	add.w	r3, r7, #88	; 0x58
    1190:	681b      	ldr	r3, [r3, #0]
    1192:	9301      	str	r3, [sp, #4]
    1194:	4b83      	ldr	r3, [pc, #524]	; (13a4 <aes_decrypt+0x5b4>)
    1196:	447b      	add	r3, pc
    1198:	9300      	str	r3, [sp, #0]
    119a:	f04f 0301 	mov.w	r3, #1
    119e:	f04f 0202 	mov.w	r2, #2
    11a2:	f240 116d 	movw	r1, #365	; 0x16d
    11a6:	4880      	ldr	r0, [pc, #512]	; (13a8 <aes_decrypt+0x5b8>)
    11a8:	4478      	add	r0, pc
    11aa:	f007 fd35 	bl	8c18 <trace_printf>
/home/hrl/optee/optee_examples/hello_aes/ta/hello_aes_ta.c:366
    11ae:	4b7f      	ldr	r3, [pc, #508]	; (13ac <aes_decrypt+0x5bc>)
    11b0:	447b      	add	r3, pc
    11b2:	9300      	str	r3, [sp, #0]
    11b4:	f04f 0301 	mov.w	r3, #1
    11b8:	f04f 0202 	mov.w	r2, #2
    11bc:	f44f 71b7 	mov.w	r1, #366	; 0x16e
    11c0:	487b      	ldr	r0, [pc, #492]	; (13b0 <aes_decrypt+0x5c0>)
    11c2:	4478      	add	r0, pc
    11c4:	f007 fd28 	bl	8c18 <trace_printf>
/home/hrl/optee/optee_examples/hello_aes/ta/hello_aes_ta.c:367
    11c8:	f04f 0300 	mov.w	r3, #0
    11cc:	f8c7 386c 	str.w	r3, [r7, #2156]	; 0x86c
    11d0:	e023      	b.n	121a <aes_decrypt+0x42a>
/home/hrl/optee/optee_examples/hello_aes/ta/hello_aes_ta.c:371
    11d2:	f207 425c 	addw	r2, r7, #1116	; 0x45c
    11d6:	f8d7 386c 	ldr.w	r3, [r7, #2156]	; 0x86c
    11da:	4413      	add	r3, r2
    11dc:	781b      	ldrb	r3, [r3, #0]
    11de:	2b80      	cmp	r3, #128	; 0x80
    11e0:	d908      	bls.n	11f4 <aes_decrypt+0x404>
/home/hrl/optee/optee_examples/hello_aes/ta/hello_aes_ta.c:371 (discriminator 1)
    11e2:	f107 025c 	add.w	r2, r7, #92	; 0x5c
    11e6:	f8d7 386c 	ldr.w	r3, [r7, #2156]	; 0x86c
    11ea:	4413      	add	r3, r2
    11ec:	f04f 023f 	mov.w	r2, #63	; 0x3f
    11f0:	701a      	strb	r2, [r3, #0]
    11f2:	e00c      	b.n	120e <aes_decrypt+0x41e>
/home/hrl/optee/optee_examples/hello_aes/ta/hello_aes_ta.c:372
    11f4:	f207 425c 	addw	r2, r7, #1116	; 0x45c
    11f8:	f8d7 386c 	ldr.w	r3, [r7, #2156]	; 0x86c
    11fc:	4413      	add	r3, r2
    11fe:	7819      	ldrb	r1, [r3, #0]
    1200:	f107 025c 	add.w	r2, r7, #92	; 0x5c
    1204:	f8d7 386c 	ldr.w	r3, [r7, #2156]	; 0x86c
    1208:	4413      	add	r3, r2
    120a:	460a      	mov	r2, r1
    120c:	701a      	strb	r2, [r3, #0]
/home/hrl/optee/optee_examples/hello_aes/ta/hello_aes_ta.c:367 (discriminator 2)
    120e:	f8d7 386c 	ldr.w	r3, [r7, #2156]	; 0x86c
    1212:	f103 0301 	add.w	r3, r3, #1
    1216:	f8c7 386c 	str.w	r3, [r7, #2156]	; 0x86c
/home/hrl/optee/optee_examples/hello_aes/ta/hello_aes_ta.c:367 (discriminator 1)
    121a:	f207 435c 	addw	r3, r7, #1116	; 0x45c
    121e:	4618      	mov	r0, r3
    1220:	f7fe ff18 	bl	54 <myStrlen>
    1224:	4602      	mov	r2, r0
    1226:	f8d7 386c 	ldr.w	r3, [r7, #2156]	; 0x86c
    122a:	429a      	cmp	r2, r3
    122c:	dcd1      	bgt.n	11d2 <aes_decrypt+0x3e2>
/home/hrl/optee/optee_examples/hello_aes/ta/hello_aes_ta.c:374
    122e:	f107 035c 	add.w	r3, r7, #92	; 0x5c
    1232:	9301      	str	r3, [sp, #4]
    1234:	4b5f      	ldr	r3, [pc, #380]	; (13b4 <aes_decrypt+0x5c4>)
    1236:	447b      	add	r3, pc
    1238:	9300      	str	r3, [sp, #0]
    123a:	f04f 0301 	mov.w	r3, #1
    123e:	f04f 0202 	mov.w	r2, #2
    1242:	f44f 71bb 	mov.w	r1, #374	; 0x176
    1246:	485c      	ldr	r0, [pc, #368]	; (13b8 <aes_decrypt+0x5c8>)
    1248:	4478      	add	r0, pc
    124a:	f007 fce5 	bl	8c18 <trace_printf>
/home/hrl/optee/optee_examples/hello_aes/ta/hello_aes_ta.c:376
    124e:	f207 435c 	addw	r3, r7, #1116	; 0x45c
    1252:	9301      	str	r3, [sp, #4]
    1254:	4b59      	ldr	r3, [pc, #356]	; (13bc <aes_decrypt+0x5cc>)
    1256:	447b      	add	r3, pc
    1258:	9300      	str	r3, [sp, #0]
    125a:	f04f 0301 	mov.w	r3, #1
    125e:	f04f 0202 	mov.w	r2, #2
    1262:	f44f 71bc 	mov.w	r1, #376	; 0x178
    1266:	4856      	ldr	r0, [pc, #344]	; (13c0 <aes_decrypt+0x5d0>)
    1268:	4478      	add	r0, pc
    126a:	f007 fcd5 	bl	8c18 <trace_printf>
/home/hrl/optee/optee_examples/hello_aes/ta/hello_aes_ta.c:377
    126e:	4b55      	ldr	r3, [pc, #340]	; (13c4 <aes_decrypt+0x5d4>)
    1270:	447b      	add	r3, pc
    1272:	9300      	str	r3, [sp, #0]
    1274:	f04f 0301 	mov.w	r3, #1
    1278:	f04f 0202 	mov.w	r2, #2
    127c:	f240 1179 	movw	r1, #377	; 0x179
    1280:	4851      	ldr	r0, [pc, #324]	; (13c8 <aes_decrypt+0x5d8>)
    1282:	4478      	add	r0, pc
    1284:	f007 fcc8 	bl	8c18 <trace_printf>
/home/hrl/optee/optee_examples/hello_aes/ta/hello_aes_ta.c:379
    1288:	f8d7 3860 	ldr.w	r3, [r7, #2144]	; 0x860
    128c:	9301      	str	r3, [sp, #4]
    128e:	4b4f      	ldr	r3, [pc, #316]	; (13cc <aes_decrypt+0x5dc>)
    1290:	447b      	add	r3, pc
    1292:	9300      	str	r3, [sp, #0]
    1294:	f04f 0301 	mov.w	r3, #1
    1298:	f04f 0202 	mov.w	r2, #2
    129c:	f240 117b 	movw	r1, #379	; 0x17b
    12a0:	484b      	ldr	r0, [pc, #300]	; (13d0 <aes_decrypt+0x5e0>)
    12a2:	4478      	add	r0, pc
    12a4:	f007 fcb8 	bl	8c18 <trace_printf>
/home/hrl/optee/optee_examples/hello_aes/ta/hello_aes_ta.c:381
    12a8:	463b      	mov	r3, r7
    12aa:	681b      	ldr	r3, [r3, #0]
    12ac:	681c      	ldr	r4, [r3, #0]
    12ae:	f207 435c 	addw	r3, r7, #1116	; 0x45c
    12b2:	4618      	mov	r0, r3
    12b4:	f7fe fece 	bl	54 <myStrlen>
    12b8:	4603      	mov	r3, r0
    12ba:	f103 0301 	add.w	r3, r3, #1
    12be:	461a      	mov	r2, r3
    12c0:	f207 435c 	addw	r3, r7, #1116	; 0x45c
    12c4:	4619      	mov	r1, r3
    12c6:	4620      	mov	r0, r4
    12c8:	f000 fb16 	bl	18f8 <TEE_MemMove>
/home/hrl/optee/optee_examples/hello_aes/ta/hello_aes_ta.c:382
    12cc:	f207 435c 	addw	r3, r7, #1116	; 0x45c
    12d0:	4618      	mov	r0, r3
    12d2:	f7fe febf 	bl	54 <myStrlen>
    12d6:	4603      	mov	r3, r0
    12d8:	f103 0301 	add.w	r3, r3, #1
    12dc:	461a      	mov	r2, r3
    12de:	463b      	mov	r3, r7
    12e0:	681b      	ldr	r3, [r3, #0]
    12e2:	605a      	str	r2, [r3, #4]
/home/hrl/optee/optee_examples/hello_aes/ta/hello_aes_ta.c:384
    12e4:	f04f 0300 	mov.w	r3, #0
/home/hrl/optee/optee_examples/hello_aes/ta/hello_aes_ta.c:386 (discriminator 1)
    12e8:	4618      	mov	r0, r3
    12ea:	f607 0774 	addw	r7, r7, #2164	; 0x874
    12ee:	46bd      	mov	sp, r7
    12f0:	e9dd 4700 	ldrd	r4, r7, [sp]
    12f4:	b002      	add	sp, #8
    12f6:	f85d fb04 	ldr.w	pc, [sp], #4
    12fa:	bf00      	nop
    12fc:	0000e804 	.word	0x0000e804
    1300:	0000e990 	.word	0x0000e990
    1304:	00012272 	.word	0x00012272
    1308:	0000e6a6 	.word	0x0000e6a6
    130c:	0000e952 	.word	0x0000e952
    1310:	0001222e 	.word	0x0001222e
    1314:	0001221a 	.word	0x0001221a
    1318:	000121fa 	.word	0x000121fa
    131c:	0000e6e2 	.word	0x0000e6e2
    1320:	0000e8ea 	.word	0x0000e8ea
    1324:	000121dc 	.word	0x000121dc
    1328:	0000e75c 	.word	0x0000e75c
    132c:	0000e8c6 	.word	0x0000e8c6
    1330:	000121aa 	.word	0x000121aa
    1334:	0000e5b0 	.word	0x0000e5b0
    1338:	0000e8a6 	.word	0x0000e8a6
    133c:	0000e5da 	.word	0x0000e5da
    1340:	0000e86c 	.word	0x0000e86c
    1344:	00012148 	.word	0x00012148
    1348:	0000e5c2 	.word	0x0000e5c2
    134c:	0000e838 	.word	0x0000e838
    1350:	0000e5a6 	.word	0x0000e5a6
    1354:	0000e800 	.word	0x0000e800
    1358:	0000e7d6 	.word	0x0000e7d6
    135c:	0000e584 	.word	0x0000e584
    1360:	0000e7be 	.word	0x0000e7be
    1364:	0001209e 	.word	0x0001209e
    1368:	0000e582 	.word	0x0000e582
    136c:	0000e78c 	.word	0x0000e78c
    1370:	0001206c 	.word	0x0001206c
    1374:	0000e75c 	.word	0x0000e75c
    1378:	0000e50a 	.word	0x0000e50a
    137c:	0000e744 	.word	0x0000e744
    1380:	0000e5c2 	.word	0x0000e5c2
    1384:	0000e724 	.word	0x0000e724
    1388:	00012004 	.word	0x00012004
    138c:	0001200e 	.word	0x0001200e
    1390:	0000e5b8 	.word	0x0000e5b8
    1394:	0000e6f6 	.word	0x0000e6f6
    1398:	0000e2d4 	.word	0x0000e2d4
    139c:	0000e6a2 	.word	0x0000e6a2
    13a0:	00011f78 	.word	0x00011f78
    13a4:	0000e49e 	.word	0x0000e49e
    13a8:	0000e654 	.word	0x0000e654
    13ac:	0000e510 	.word	0x0000e510
    13b0:	0000e63a 	.word	0x0000e63a
    13b4:	0000e4a2 	.word	0x0000e4a2
    13b8:	0000e5b4 	.word	0x0000e5b4
    13bc:	0000e49e 	.word	0x0000e49e
    13c0:	0000e594 	.word	0x0000e594
    13c4:	0000e498 	.word	0x0000e498
    13c8:	0000e57a 	.word	0x0000e57a
    13cc:	0000e3c0 	.word	0x0000e3c0
    13d0:	0000e55a 	.word	0x0000e55a

000013d4 <TA_InvokeCommandEntryPoint>:
TA_InvokeCommandEntryPoint():
/home/hrl/optee/optee_examples/hello_aes/ta/hello_aes_ta.c:464
    13d4:	e96d 7e02 	strd	r7, lr, [sp, #-8]!
    13d8:	b086      	sub	sp, #24
    13da:	af02      	add	r7, sp, #8
    13dc:	60f8      	str	r0, [r7, #12]
    13de:	60b9      	str	r1, [r7, #8]
    13e0:	607a      	str	r2, [r7, #4]
    13e2:	603b      	str	r3, [r7, #0]
/home/hrl/optee/optee_examples/hello_aes/ta/hello_aes_ta.c:467
    13e4:	68bb      	ldr	r3, [r7, #8]
    13e6:	9301      	str	r3, [sp, #4]
    13e8:	4b17      	ldr	r3, [pc, #92]	; (1448 <TA_InvokeCommandEntryPoint+0x74>)
    13ea:	447b      	add	r3, pc
    13ec:	9300      	str	r3, [sp, #0]
    13ee:	f04f 0301 	mov.w	r3, #1
    13f2:	f04f 0202 	mov.w	r2, #2
    13f6:	f240 11d3 	movw	r1, #467	; 0x1d3
    13fa:	4814      	ldr	r0, [pc, #80]	; (144c <TA_InvokeCommandEntryPoint+0x78>)
    13fc:	4478      	add	r0, pc
    13fe:	f007 fc0b 	bl	8c18 <trace_printf>
/home/hrl/optee/optee_examples/hello_aes/ta/hello_aes_ta.c:468
    1402:	68bb      	ldr	r3, [r7, #8]
    1404:	2b01      	cmp	r3, #1
    1406:	d00a      	beq.n	141e <TA_InvokeCommandEntryPoint+0x4a>
    1408:	2b01      	cmp	r3, #1
    140a:	d302      	bcc.n	1412 <TA_InvokeCommandEntryPoint+0x3e>
    140c:	2b02      	cmp	r3, #2
    140e:	d00c      	beq.n	142a <TA_InvokeCommandEntryPoint+0x56>
    1410:	e011      	b.n	1436 <TA_InvokeCommandEntryPoint+0x62>
/home/hrl/optee/optee_examples/hello_aes/ta/hello_aes_ta.c:474
    1412:	6839      	ldr	r1, [r7, #0]
    1414:	6878      	ldr	r0, [r7, #4]
    1416:	f7ff f8f7 	bl	608 <aes_init>
    141a:	4603      	mov	r3, r0
    141c:	e00f      	b.n	143e <TA_InvokeCommandEntryPoint+0x6a>
/home/hrl/optee/optee_examples/hello_aes/ta/hello_aes_ta.c:476
    141e:	6839      	ldr	r1, [r7, #0]
    1420:	6878      	ldr	r0, [r7, #4]
    1422:	f7ff fa99 	bl	958 <aes_encrypt>
    1426:	4603      	mov	r3, r0
    1428:	e009      	b.n	143e <TA_InvokeCommandEntryPoint+0x6a>
/home/hrl/optee/optee_examples/hello_aes/ta/hello_aes_ta.c:478
    142a:	6839      	ldr	r1, [r7, #0]
    142c:	6878      	ldr	r0, [r7, #4]
    142e:	f7ff fcdf 	bl	df0 <aes_decrypt>
    1432:	4603      	mov	r3, r0
    1434:	e003      	b.n	143e <TA_InvokeCommandEntryPoint+0x6a>
/home/hrl/optee/optee_examples/hello_aes/ta/hello_aes_ta.c:482
    1436:	f04f 0306 	mov.w	r3, #6
    143a:	f6cf 73ff 	movt	r3, #65535	; 0xffff
/home/hrl/optee/optee_examples/hello_aes/ta/hello_aes_ta.c:484
    143e:	4618      	mov	r0, r3
    1440:	f107 0710 	add.w	r7, r7, #16
    1444:	46bd      	mov	sp, r7
    1446:	bd80      	pop	{r7, pc}
    1448:	0000e336 	.word	0x0000e336
    144c:	0000e40c 	.word	0x0000e40c

00001450 <__utee_from_param>:
__utee_from_param():
/home/hrl/optee/optee_os/lib/libutee/tee_api.c:42
    1450:	e96d 4702 	strd	r4, r7, [sp, #-8]!
    1454:	b086      	sub	sp, #24
    1456:	af00      	add	r7, sp, #0
    1458:	60f8      	str	r0, [r7, #12]
    145a:	60b9      	str	r1, [r7, #8]
    145c:	607a      	str	r2, [r7, #4]
/home/hrl/optee/optee_os/lib/libutee/tee_api.c:45
    145e:	68bb      	ldr	r3, [r7, #8]
    1460:	f04f 0400 	mov.w	r4, #0
    1464:	68fa      	ldr	r2, [r7, #12]
    1466:	e9c2 3400 	strd	r3, r4, [r2]
/home/hrl/optee/optee_os/lib/libutee/tee_api.c:46
    146a:	f04f 0300 	mov.w	r3, #0
    146e:	617b      	str	r3, [r7, #20]
    1470:	e095      	b.n	159e <__utee_from_param+0x14e>
/home/hrl/optee/optee_os/lib/libutee/tee_api.c:47
    1472:	697b      	ldr	r3, [r7, #20]
    1474:	ea4f 0383 	mov.w	r3, r3, lsl #2
    1478:	68ba      	ldr	r2, [r7, #8]
    147a:	fa22 f303 	lsr.w	r3, r2, r3
    147e:	f003 030f 	and.w	r3, r3, #15
    1482:	f103 33ff 	add.w	r3, r3, #4294967295	; 0xffffffff
    1486:	2b06      	cmp	r3, #6
    1488:	d864      	bhi.n	1554 <__utee_from_param+0x104>
    148a:	a202      	add	r2, pc, #8	; (adr r2, 1494 <__utee_from_param+0x44>)
    148c:	f852 3023 	ldr.w	r3, [r2, r3, lsl #2]
    1490:	441a      	add	r2, r3
    1492:	4710      	bx	r2
    1494:	0000001d 	.word	0x0000001d
    1498:	0000001d 	.word	0x0000001d
    149c:	0000001d 	.word	0x0000001d
    14a0:	000000c1 	.word	0x000000c1
    14a4:	0000006f 	.word	0x0000006f
    14a8:	0000006f 	.word	0x0000006f
    14ac:	0000006f 	.word	0x0000006f
/home/hrl/optee/optee_os/lib/libutee/tee_api.c:51
    14b0:	697b      	ldr	r3, [r7, #20]
    14b2:	ea4f 0243 	mov.w	r2, r3, lsl #1
    14b6:	697b      	ldr	r3, [r7, #20]
    14b8:	ea4f 03c3 	mov.w	r3, r3, lsl #3
    14bc:	6879      	ldr	r1, [r7, #4]
    14be:	440b      	add	r3, r1
    14c0:	681b      	ldr	r3, [r3, #0]
    14c2:	f04f 0400 	mov.w	r4, #0
    14c6:	68f9      	ldr	r1, [r7, #12]
    14c8:	f102 0201 	add.w	r2, r2, #1
    14cc:	ea4f 02c2 	mov.w	r2, r2, lsl #3
    14d0:	440a      	add	r2, r1
    14d2:	e9c2 3400 	strd	r3, r4, [r2]
/home/hrl/optee/optee_os/lib/libutee/tee_api.c:52
    14d6:	697b      	ldr	r3, [r7, #20]
    14d8:	ea4f 0343 	mov.w	r3, r3, lsl #1
    14dc:	f103 0201 	add.w	r2, r3, #1
    14e0:	697b      	ldr	r3, [r7, #20]
    14e2:	ea4f 03c3 	mov.w	r3, r3, lsl #3
    14e6:	6879      	ldr	r1, [r7, #4]
    14e8:	440b      	add	r3, r1
    14ea:	685b      	ldr	r3, [r3, #4]
    14ec:	f04f 0400 	mov.w	r4, #0
    14f0:	68f9      	ldr	r1, [r7, #12]
    14f2:	f102 0201 	add.w	r2, r2, #1
    14f6:	ea4f 02c2 	mov.w	r2, r2, lsl #3
    14fa:	440a      	add	r2, r1
    14fc:	e9c2 3400 	strd	r3, r4, [r2]
/home/hrl/optee/optee_os/lib/libutee/tee_api.c:53
    1500:	e049      	b.n	1596 <__utee_from_param+0x146>
/home/hrl/optee/optee_os/lib/libutee/tee_api.c:57
    1502:	697b      	ldr	r3, [r7, #20]
    1504:	ea4f 0243 	mov.w	r2, r3, lsl #1
    1508:	697b      	ldr	r3, [r7, #20]
    150a:	ea4f 03c3 	mov.w	r3, r3, lsl #3
    150e:	6879      	ldr	r1, [r7, #4]
    1510:	440b      	add	r3, r1
    1512:	681b      	ldr	r3, [r3, #0]
    1514:	f04f 0400 	mov.w	r4, #0
    1518:	68f9      	ldr	r1, [r7, #12]
    151a:	f102 0201 	add.w	r2, r2, #1
    151e:	ea4f 02c2 	mov.w	r2, r2, lsl #3
    1522:	440a      	add	r2, r1
    1524:	e9c2 3400 	strd	r3, r4, [r2]
/home/hrl/optee/optee_os/lib/libutee/tee_api.c:58
    1528:	697b      	ldr	r3, [r7, #20]
    152a:	ea4f 0343 	mov.w	r3, r3, lsl #1
    152e:	f103 0201 	add.w	r2, r3, #1
    1532:	697b      	ldr	r3, [r7, #20]
    1534:	ea4f 03c3 	mov.w	r3, r3, lsl #3
    1538:	6879      	ldr	r1, [r7, #4]
    153a:	440b      	add	r3, r1
    153c:	685b      	ldr	r3, [r3, #4]
    153e:	f04f 0400 	mov.w	r4, #0
    1542:	68f9      	ldr	r1, [r7, #12]
    1544:	f102 0201 	add.w	r2, r2, #1
    1548:	ea4f 02c2 	mov.w	r2, r2, lsl #3
    154c:	440a      	add	r2, r1
    154e:	e9c2 3400 	strd	r3, r4, [r2]
/home/hrl/optee/optee_os/lib/libutee/tee_api.c:59
    1552:	e020      	b.n	1596 <__utee_from_param+0x146>
/home/hrl/optee/optee_os/lib/libutee/tee_api.c:61
    1554:	697b      	ldr	r3, [r7, #20]
    1556:	ea4f 0343 	mov.w	r3, r3, lsl #1
    155a:	68fa      	ldr	r2, [r7, #12]
    155c:	f103 0301 	add.w	r3, r3, #1
    1560:	ea4f 03c3 	mov.w	r3, r3, lsl #3
    1564:	441a      	add	r2, r3
    1566:	f04f 0300 	mov.w	r3, #0
    156a:	f04f 0400 	mov.w	r4, #0
    156e:	e9c2 3400 	strd	r3, r4, [r2]
/home/hrl/optee/optee_os/lib/libutee/tee_api.c:62
    1572:	697b      	ldr	r3, [r7, #20]
    1574:	ea4f 0343 	mov.w	r3, r3, lsl #1
    1578:	f103 0301 	add.w	r3, r3, #1
    157c:	68fa      	ldr	r2, [r7, #12]
    157e:	f103 0301 	add.w	r3, r3, #1
    1582:	ea4f 03c3 	mov.w	r3, r3, lsl #3
    1586:	441a      	add	r2, r3
    1588:	f04f 0300 	mov.w	r3, #0
    158c:	f04f 0400 	mov.w	r4, #0
    1590:	e9c2 3400 	strd	r3, r4, [r2]
/home/hrl/optee/optee_os/lib/libutee/tee_api.c:63
    1594:	bf00      	nop
/home/hrl/optee/optee_os/lib/libutee/tee_api.c:46 (discriminator 2)
    1596:	697b      	ldr	r3, [r7, #20]
    1598:	f103 0301 	add.w	r3, r3, #1
    159c:	617b      	str	r3, [r7, #20]
/home/hrl/optee/optee_os/lib/libutee/tee_api.c:46 (discriminator 1)
    159e:	697b      	ldr	r3, [r7, #20]
    15a0:	2b03      	cmp	r3, #3
    15a2:	f67f af66 	bls.w	1472 <__utee_from_param+0x22>
/home/hrl/optee/optee_os/lib/libutee/tee_api.c:66
    15a6:	bf00      	nop
    15a8:	f107 0718 	add.w	r7, r7, #24
    15ac:	46bd      	mov	sp, r7
    15ae:	e9dd 4700 	ldrd	r4, r7, [sp]
    15b2:	b002      	add	sp, #8
    15b4:	4770      	bx	lr

000015b6 <__utee_to_param>:
__utee_to_param():
/home/hrl/optee/optee_os/lib/libutee/tee_api.c:70
    15b6:	e96d 4702 	strd	r4, r7, [sp, #-8]!
    15ba:	b088      	sub	sp, #32
    15bc:	af00      	add	r7, sp, #0
    15be:	60f8      	str	r0, [r7, #12]
    15c0:	60b9      	str	r1, [r7, #8]
    15c2:	607a      	str	r2, [r7, #4]
/home/hrl/optee/optee_os/lib/libutee/tee_api.c:72
    15c4:	687b      	ldr	r3, [r7, #4]
    15c6:	e9d3 3400 	ldrd	r3, r4, [r3]
    15ca:	61bb      	str	r3, [r7, #24]
/home/hrl/optee/optee_os/lib/libutee/tee_api.c:74
    15cc:	f04f 0300 	mov.w	r3, #0
    15d0:	61fb      	str	r3, [r7, #28]
    15d2:	e05c      	b.n	168e <__utee_to_param+0xd8>
/home/hrl/optee/optee_os/lib/libutee/tee_api.c:75
    15d4:	69fb      	ldr	r3, [r7, #28]
    15d6:	ea4f 0343 	mov.w	r3, r3, lsl #1
    15da:	687a      	ldr	r2, [r7, #4]
    15dc:	f103 0301 	add.w	r3, r3, #1
    15e0:	ea4f 03c3 	mov.w	r3, r3, lsl #3
    15e4:	4413      	add	r3, r2
    15e6:	e9d3 3400 	ldrd	r3, r4, [r3]
    15ea:	617b      	str	r3, [r7, #20]
/home/hrl/optee/optee_os/lib/libutee/tee_api.c:76
    15ec:	69fb      	ldr	r3, [r7, #28]
    15ee:	ea4f 0343 	mov.w	r3, r3, lsl #1
    15f2:	f103 0301 	add.w	r3, r3, #1
    15f6:	687a      	ldr	r2, [r7, #4]
    15f8:	f103 0301 	add.w	r3, r3, #1
    15fc:	ea4f 03c3 	mov.w	r3, r3, lsl #3
    1600:	4413      	add	r3, r2
    1602:	e9d3 3400 	ldrd	r3, r4, [r3]
    1606:	613b      	str	r3, [r7, #16]
/home/hrl/optee/optee_os/lib/libutee/tee_api.c:78
    1608:	69fb      	ldr	r3, [r7, #28]
    160a:	ea4f 0383 	mov.w	r3, r3, lsl #2
    160e:	69ba      	ldr	r2, [r7, #24]
    1610:	fa22 f303 	lsr.w	r3, r2, r3
    1614:	f003 030f 	and.w	r3, r3, #15
    1618:	f103 33ff 	add.w	r3, r3, #4294967295	; 0xffffffff
    161c:	2b06      	cmp	r3, #6
    161e:	d831      	bhi.n	1684 <__utee_to_param+0xce>
    1620:	a202      	add	r2, pc, #8	; (adr r2, 162c <__utee_to_param+0x76>)
    1622:	f852 3023 	ldr.w	r3, [r2, r3, lsl #2]
    1626:	441a      	add	r2, r3
    1628:	4710      	bx	r2
    162a:	bf00      	nop
    162c:	0000001d 	.word	0x0000001d
    1630:	0000001d 	.word	0x0000001d
    1634:	0000001d 	.word	0x0000001d
    1638:	00000059 	.word	0x00000059
    163c:	0000003b 	.word	0x0000003b
    1640:	0000003b 	.word	0x0000003b
    1644:	0000003b 	.word	0x0000003b
/home/hrl/optee/optee_os/lib/libutee/tee_api.c:82
    1648:	69fb      	ldr	r3, [r7, #28]
    164a:	ea4f 03c3 	mov.w	r3, r3, lsl #3
    164e:	68fa      	ldr	r2, [r7, #12]
    1650:	4413      	add	r3, r2
    1652:	697a      	ldr	r2, [r7, #20]
    1654:	601a      	str	r2, [r3, #0]
/home/hrl/optee/optee_os/lib/libutee/tee_api.c:83
    1656:	69fb      	ldr	r3, [r7, #28]
    1658:	ea4f 03c3 	mov.w	r3, r3, lsl #3
    165c:	68fa      	ldr	r2, [r7, #12]
    165e:	4413      	add	r3, r2
    1660:	693a      	ldr	r2, [r7, #16]
    1662:	605a      	str	r2, [r3, #4]
/home/hrl/optee/optee_os/lib/libutee/tee_api.c:84
    1664:	e00f      	b.n	1686 <__utee_to_param+0xd0>
/home/hrl/optee/optee_os/lib/libutee/tee_api.c:88
    1666:	69fb      	ldr	r3, [r7, #28]
    1668:	ea4f 03c3 	mov.w	r3, r3, lsl #3
    166c:	68fa      	ldr	r2, [r7, #12]
    166e:	4413      	add	r3, r2
    1670:	697a      	ldr	r2, [r7, #20]
    1672:	601a      	str	r2, [r3, #0]
/home/hrl/optee/optee_os/lib/libutee/tee_api.c:89
    1674:	69fb      	ldr	r3, [r7, #28]
    1676:	ea4f 03c3 	mov.w	r3, r3, lsl #3
    167a:	68fa      	ldr	r2, [r7, #12]
    167c:	4413      	add	r3, r2
    167e:	693a      	ldr	r2, [r7, #16]
    1680:	605a      	str	r2, [r3, #4]
/home/hrl/optee/optee_os/lib/libutee/tee_api.c:90
    1682:	e000      	b.n	1686 <__utee_to_param+0xd0>
/home/hrl/optee/optee_os/lib/libutee/tee_api.c:92
    1684:	bf00      	nop
/home/hrl/optee/optee_os/lib/libutee/tee_api.c:74 (discriminator 2)
    1686:	69fb      	ldr	r3, [r7, #28]
    1688:	f103 0301 	add.w	r3, r3, #1
    168c:	61fb      	str	r3, [r7, #28]
/home/hrl/optee/optee_os/lib/libutee/tee_api.c:74 (discriminator 1)
    168e:	69fb      	ldr	r3, [r7, #28]
    1690:	2b03      	cmp	r3, #3
    1692:	d99f      	bls.n	15d4 <__utee_to_param+0x1e>
/home/hrl/optee/optee_os/lib/libutee/tee_api.c:96
    1694:	68bb      	ldr	r3, [r7, #8]
    1696:	2b00      	cmp	r3, #0
    1698:	d002      	beq.n	16a0 <__utee_to_param+0xea>
/home/hrl/optee/optee_os/lib/libutee/tee_api.c:97
    169a:	68bb      	ldr	r3, [r7, #8]
    169c:	69ba      	ldr	r2, [r7, #24]
    169e:	601a      	str	r2, [r3, #0]
/home/hrl/optee/optee_os/lib/libutee/tee_api.c:98
    16a0:	bf00      	nop
    16a2:	f107 0720 	add.w	r7, r7, #32
    16a6:	46bd      	mov	sp, r7
    16a8:	e9dd 4700 	ldrd	r4, r7, [sp]
    16ac:	b002      	add	sp, #8
    16ae:	4770      	bx	lr

000016b0 <TEE_OpenTASession>:
TEE_OpenTASession():
/home/hrl/optee/optee_os/lib/libutee/tee_api.c:106
    16b0:	e96d 7e02 	strd	r7, lr, [sp, #-8]!
    16b4:	b09c      	sub	sp, #112	; 0x70
    16b6:	af02      	add	r7, sp, #8
    16b8:	60f8      	str	r0, [r7, #12]
    16ba:	60b9      	str	r1, [r7, #8]
    16bc:	607a      	str	r2, [r7, #4]
    16be:	603b      	str	r3, [r7, #0]
/home/hrl/optee/optee_os/lib/libutee/tee_api.c:111
    16c0:	f107 0318 	add.w	r3, r7, #24
    16c4:	683a      	ldr	r2, [r7, #0]
    16c6:	6879      	ldr	r1, [r7, #4]
    16c8:	4618      	mov	r0, r3
    16ca:	f7ff fec1 	bl	1450 <__utee_from_param>
/home/hrl/optee/optee_os/lib/libutee/tee_api.c:112
    16ce:	f107 0114 	add.w	r1, r7, #20
    16d2:	f107 0218 	add.w	r2, r7, #24
    16d6:	6f7b      	ldr	r3, [r7, #116]	; 0x74
    16d8:	9300      	str	r3, [sp, #0]
    16da:	460b      	mov	r3, r1
    16dc:	68b9      	ldr	r1, [r7, #8]
    16de:	68f8      	ldr	r0, [r7, #12]
    16e0:	f003 ea30 	blx	4b44 <utee_open_ta_session>
    16e4:	6678      	str	r0, [r7, #100]	; 0x64
/home/hrl/optee/optee_os/lib/libutee/tee_api.c:114
    16e6:	f107 0318 	add.w	r3, r7, #24
    16ea:	461a      	mov	r2, r3
    16ec:	f04f 0100 	mov.w	r1, #0
    16f0:	6838      	ldr	r0, [r7, #0]
    16f2:	f7ff ff60 	bl	15b6 <__utee_to_param>
/home/hrl/optee/optee_os/lib/libutee/tee_api.c:120
    16f6:	6e7b      	ldr	r3, [r7, #100]	; 0x64
    16f8:	2b00      	cmp	r3, #0
    16fa:	d002      	beq.n	1702 <TEE_OpenTASession+0x52>
/home/hrl/optee/optee_os/lib/libutee/tee_api.c:121
    16fc:	f04f 0300 	mov.w	r3, #0
    1700:	617b      	str	r3, [r7, #20]
/home/hrl/optee/optee_os/lib/libutee/tee_api.c:123
    1702:	697b      	ldr	r3, [r7, #20]
    1704:	461a      	mov	r2, r3
    1706:	6f3b      	ldr	r3, [r7, #112]	; 0x70
    1708:	601a      	str	r2, [r3, #0]
/home/hrl/optee/optee_os/lib/libutee/tee_api.c:124
    170a:	6e7b      	ldr	r3, [r7, #100]	; 0x64
/home/hrl/optee/optee_os/lib/libutee/tee_api.c:125
    170c:	4618      	mov	r0, r3
    170e:	f107 0768 	add.w	r7, r7, #104	; 0x68
    1712:	46bd      	mov	sp, r7
    1714:	bd80      	pop	{r7, pc}

00001716 <TEE_CloseTASession>:
TEE_CloseTASession():
/home/hrl/optee/optee_os/lib/libutee/tee_api.c:128
    1716:	e96d 7e02 	strd	r7, lr, [sp, #-8]!
    171a:	b084      	sub	sp, #16
    171c:	af00      	add	r7, sp, #0
    171e:	6078      	str	r0, [r7, #4]
/home/hrl/optee/optee_os/lib/libutee/tee_api.c:129
    1720:	687b      	ldr	r3, [r7, #4]
    1722:	2b00      	cmp	r3, #0
    1724:	d00a      	beq.n	173c <TEE_CloseTASession+0x26>
/home/hrl/optee/optee_os/lib/libutee/tee_api.c:130
    1726:	687b      	ldr	r3, [r7, #4]
    1728:	4618      	mov	r0, r3
    172a:	f003 ea18 	blx	4b5c <utee_close_ta_session>
    172e:	60f8      	str	r0, [r7, #12]
/home/hrl/optee/optee_os/lib/libutee/tee_api.c:132
    1730:	68fb      	ldr	r3, [r7, #12]
    1732:	2b00      	cmp	r3, #0
    1734:	d002      	beq.n	173c <TEE_CloseTASession+0x26>
/home/hrl/optee/optee_os/lib/libutee/tee_api.c:133
    1736:	68f8      	ldr	r0, [r7, #12]
    1738:	f00a f8fe 	bl	b938 <TEE_Panic>
/home/hrl/optee/optee_os/lib/libutee/tee_api.c:135
    173c:	bf00      	nop
    173e:	f107 0710 	add.w	r7, r7, #16
    1742:	46bd      	mov	sp, r7
    1744:	bd80      	pop	{r7, pc}

00001746 <TEE_InvokeTACommand>:
TEE_InvokeTACommand():
/home/hrl/optee/optee_os/lib/libutee/tee_api.c:142
    1746:	e96d 7e02 	strd	r7, lr, [sp, #-8]!
    174a:	b09a      	sub	sp, #104	; 0x68
    174c:	af02      	add	r7, sp, #8
    174e:	60f8      	str	r0, [r7, #12]
    1750:	60b9      	str	r1, [r7, #8]
    1752:	607a      	str	r2, [r7, #4]
    1754:	603b      	str	r3, [r7, #0]
/home/hrl/optee/optee_os/lib/libutee/tee_api.c:147
    1756:	f107 0310 	add.w	r3, r7, #16
    175a:	6eba      	ldr	r2, [r7, #104]	; 0x68
    175c:	6839      	ldr	r1, [r7, #0]
    175e:	4618      	mov	r0, r3
    1760:	f7ff fe76 	bl	1450 <__utee_from_param>
/home/hrl/optee/optee_os/lib/libutee/tee_api.c:148
    1764:	68f8      	ldr	r0, [r7, #12]
    1766:	f107 0210 	add.w	r2, r7, #16
    176a:	f107 0358 	add.w	r3, r7, #88	; 0x58
    176e:	9300      	str	r3, [sp, #0]
    1770:	4613      	mov	r3, r2
    1772:	687a      	ldr	r2, [r7, #4]
    1774:	68b9      	ldr	r1, [r7, #8]
    1776:	f003 e9fc 	blx	4b70 <utee_invoke_ta_command>
    177a:	65f8      	str	r0, [r7, #92]	; 0x5c
/home/hrl/optee/optee_os/lib/libutee/tee_api.c:151
    177c:	f107 0310 	add.w	r3, r7, #16
    1780:	461a      	mov	r2, r3
    1782:	f04f 0100 	mov.w	r1, #0
    1786:	6eb8      	ldr	r0, [r7, #104]	; 0x68
    1788:	f7ff ff15 	bl	15b6 <__utee_to_param>
/home/hrl/optee/optee_os/lib/libutee/tee_api.c:153
    178c:	6efb      	ldr	r3, [r7, #108]	; 0x6c
    178e:	2b00      	cmp	r3, #0
    1790:	d002      	beq.n	1798 <TEE_InvokeTACommand+0x52>
/home/hrl/optee/optee_os/lib/libutee/tee_api.c:154
    1792:	6dba      	ldr	r2, [r7, #88]	; 0x58
    1794:	6efb      	ldr	r3, [r7, #108]	; 0x6c
    1796:	601a      	str	r2, [r3, #0]
/home/hrl/optee/optee_os/lib/libutee/tee_api.c:156
    1798:	6dbb      	ldr	r3, [r7, #88]	; 0x58
    179a:	2b04      	cmp	r3, #4
    179c:	d101      	bne.n	17a2 <TEE_InvokeTACommand+0x5c>
/home/hrl/optee/optee_os/lib/libutee/tee_api.c:157
    179e:	6dfb      	ldr	r3, [r7, #92]	; 0x5c
    17a0:	e014      	b.n	17cc <TEE_InvokeTACommand+0x86>
/home/hrl/optee/optee_os/lib/libutee/tee_api.c:159
    17a2:	6dfb      	ldr	r3, [r7, #92]	; 0x5c
    17a4:	2b00      	cmp	r3, #0
    17a6:	d010      	beq.n	17ca <TEE_InvokeTACommand+0x84>
/home/hrl/optee/optee_os/lib/libutee/tee_api.c:159 (discriminator 1)
    17a8:	6dfa      	ldr	r2, [r7, #92]	; 0x5c
    17aa:	f04f 030c 	mov.w	r3, #12
    17ae:	f6cf 73ff 	movt	r3, #65535	; 0xffff
    17b2:	429a      	cmp	r2, r3
    17b4:	d009      	beq.n	17ca <TEE_InvokeTACommand+0x84>
/home/hrl/optee/optee_os/lib/libutee/tee_api.c:160
    17b6:	6dfa      	ldr	r2, [r7, #92]	; 0x5c
    17b8:	f243 0324 	movw	r3, #12324	; 0x3024
    17bc:	f6cf 73ff 	movt	r3, #65535	; 0xffff
    17c0:	429a      	cmp	r2, r3
    17c2:	d002      	beq.n	17ca <TEE_InvokeTACommand+0x84>
/home/hrl/optee/optee_os/lib/libutee/tee_api.c:162
    17c4:	6df8      	ldr	r0, [r7, #92]	; 0x5c
    17c6:	f00a f8b7 	bl	b938 <TEE_Panic>
/home/hrl/optee/optee_os/lib/libutee/tee_api.c:164
    17ca:	6dfb      	ldr	r3, [r7, #92]	; 0x5c
/home/hrl/optee/optee_os/lib/libutee/tee_api.c:165 (discriminator 1)
    17cc:	4618      	mov	r0, r3
    17ce:	f107 0760 	add.w	r7, r7, #96	; 0x60
    17d2:	46bd      	mov	sp, r7
    17d4:	bd80      	pop	{r7, pc}

000017d6 <TEE_GetCancellationFlag>:
TEE_GetCancellationFlag():
/home/hrl/optee/optee_os/lib/libutee/tee_api.c:170
    17d6:	e96d 7e02 	strd	r7, lr, [sp, #-8]!
    17da:	b082      	sub	sp, #8
    17dc:	af00      	add	r7, sp, #0
/home/hrl/optee/optee_os/lib/libutee/tee_api.c:172
    17de:	463b      	mov	r3, r7
    17e0:	4618      	mov	r0, r3
    17e2:	f003 e9d2 	blx	4b88 <utee_get_cancellation_flag>
    17e6:	6078      	str	r0, [r7, #4]
/home/hrl/optee/optee_os/lib/libutee/tee_api.c:174
    17e8:	687b      	ldr	r3, [r7, #4]
    17ea:	2b00      	cmp	r3, #0
    17ec:	d002      	beq.n	17f4 <TEE_GetCancellationFlag+0x1e>
/home/hrl/optee/optee_os/lib/libutee/tee_api.c:175
    17ee:	f04f 0300 	mov.w	r3, #0
    17f2:	603b      	str	r3, [r7, #0]
/home/hrl/optee/optee_os/lib/libutee/tee_api.c:176
    17f4:	683b      	ldr	r3, [r7, #0]
    17f6:	2b00      	cmp	r3, #0
    17f8:	bf14      	ite	ne
    17fa:	2301      	movne	r3, #1
    17fc:	2300      	moveq	r3, #0
    17fe:	b2db      	uxtb	r3, r3
/home/hrl/optee/optee_os/lib/libutee/tee_api.c:177
    1800:	4618      	mov	r0, r3
    1802:	f107 0708 	add.w	r7, r7, #8
    1806:	46bd      	mov	sp, r7
    1808:	bd80      	pop	{r7, pc}

0000180a <TEE_UnmaskCancellation>:
TEE_UnmaskCancellation():
/home/hrl/optee/optee_os/lib/libutee/tee_api.c:180
    180a:	e96d 7e02 	strd	r7, lr, [sp, #-8]!
    180e:	b082      	sub	sp, #8
    1810:	af00      	add	r7, sp, #0
/home/hrl/optee/optee_os/lib/libutee/tee_api.c:182
    1812:	463b      	mov	r3, r7
    1814:	4618      	mov	r0, r3
    1816:	f003 e9cc 	blx	4bb0 <utee_unmask_cancellation>
    181a:	6078      	str	r0, [r7, #4]
/home/hrl/optee/optee_os/lib/libutee/tee_api.c:184
    181c:	687b      	ldr	r3, [r7, #4]
    181e:	2b00      	cmp	r3, #0
    1820:	d002      	beq.n	1828 <TEE_UnmaskCancellation+0x1e>
/home/hrl/optee/optee_os/lib/libutee/tee_api.c:185
    1822:	6878      	ldr	r0, [r7, #4]
    1824:	f00a f888 	bl	b938 <TEE_Panic>
/home/hrl/optee/optee_os/lib/libutee/tee_api.c:186
    1828:	683b      	ldr	r3, [r7, #0]
    182a:	2b00      	cmp	r3, #0
    182c:	bf14      	ite	ne
    182e:	2301      	movne	r3, #1
    1830:	2300      	moveq	r3, #0
    1832:	b2db      	uxtb	r3, r3
/home/hrl/optee/optee_os/lib/libutee/tee_api.c:187
    1834:	4618      	mov	r0, r3
    1836:	f107 0708 	add.w	r7, r7, #8
    183a:	46bd      	mov	sp, r7
    183c:	bd80      	pop	{r7, pc}

0000183e <TEE_MaskCancellation>:
TEE_MaskCancellation():
/home/hrl/optee/optee_os/lib/libutee/tee_api.c:190
    183e:	e96d 7e02 	strd	r7, lr, [sp, #-8]!
    1842:	b082      	sub	sp, #8
    1844:	af00      	add	r7, sp, #0
/home/hrl/optee/optee_os/lib/libutee/tee_api.c:192
    1846:	463b      	mov	r3, r7
    1848:	4618      	mov	r0, r3
    184a:	f003 e9bc 	blx	4bc4 <utee_mask_cancellation>
    184e:	6078      	str	r0, [r7, #4]
/home/hrl/optee/optee_os/lib/libutee/tee_api.c:194
    1850:	687b      	ldr	r3, [r7, #4]
    1852:	2b00      	cmp	r3, #0
    1854:	d002      	beq.n	185c <TEE_MaskCancellation+0x1e>
/home/hrl/optee/optee_os/lib/libutee/tee_api.c:195
    1856:	6878      	ldr	r0, [r7, #4]
    1858:	f00a f86e 	bl	b938 <TEE_Panic>
/home/hrl/optee/optee_os/lib/libutee/tee_api.c:196
    185c:	683b      	ldr	r3, [r7, #0]
    185e:	2b00      	cmp	r3, #0
    1860:	bf14      	ite	ne
    1862:	2301      	movne	r3, #1
    1864:	2300      	moveq	r3, #0
    1866:	b2db      	uxtb	r3, r3
/home/hrl/optee/optee_os/lib/libutee/tee_api.c:197
    1868:	4618      	mov	r0, r3
    186a:	f107 0708 	add.w	r7, r7, #8
    186e:	46bd      	mov	sp, r7
    1870:	bd80      	pop	{r7, pc}

00001872 <TEE_CheckMemoryAccessRights>:
TEE_CheckMemoryAccessRights():
/home/hrl/optee/optee_os/lib/libutee/tee_api.c:203
    1872:	e96d 7e02 	strd	r7, lr, [sp, #-8]!
    1876:	b086      	sub	sp, #24
    1878:	af00      	add	r7, sp, #0
    187a:	60f8      	str	r0, [r7, #12]
    187c:	60b9      	str	r1, [r7, #8]
    187e:	607a      	str	r2, [r7, #4]
/home/hrl/optee/optee_os/lib/libutee/tee_api.c:206
    1880:	687b      	ldr	r3, [r7, #4]
    1882:	2b00      	cmp	r3, #0
    1884:	d102      	bne.n	188c <TEE_CheckMemoryAccessRights+0x1a>
/home/hrl/optee/optee_os/lib/libutee/tee_api.c:207
    1886:	f04f 0300 	mov.w	r3, #0
    188a:	e00e      	b.n	18aa <TEE_CheckMemoryAccessRights+0x38>
/home/hrl/optee/optee_os/lib/libutee/tee_api.c:210
    188c:	687a      	ldr	r2, [r7, #4]
    188e:	68b9      	ldr	r1, [r7, #8]
    1890:	68f8      	ldr	r0, [r7, #12]
    1892:	f003 e984 	blx	4b9c <utee_check_access_rights>
    1896:	6178      	str	r0, [r7, #20]
/home/hrl/optee/optee_os/lib/libutee/tee_api.c:211
    1898:	697b      	ldr	r3, [r7, #20]
    189a:	2b00      	cmp	r3, #0
    189c:	d103      	bne.n	18a6 <TEE_CheckMemoryAccessRights+0x34>
/home/hrl/optee/optee_os/lib/libutee/tee_api.c:219
    189e:	f04f 0300 	mov.w	r3, #0
    18a2:	617b      	str	r3, [r7, #20]
    18a4:	e000      	b.n	18a8 <TEE_CheckMemoryAccessRights+0x36>
/home/hrl/optee/optee_os/lib/libutee/tee_api.c:212
    18a6:	bf00      	nop
/home/hrl/optee/optee_os/lib/libutee/tee_api.c:221
    18a8:	697b      	ldr	r3, [r7, #20]
/home/hrl/optee/optee_os/lib/libutee/tee_api.c:222
    18aa:	4618      	mov	r0, r3
    18ac:	f107 0718 	add.w	r7, r7, #24
    18b0:	46bd      	mov	sp, r7
    18b2:	bd80      	pop	{r7, pc}

000018b4 <TEE_SetInstanceData>:
TEE_SetInstanceData():
/home/hrl/optee/optee_os/lib/libutee/tee_api.c:225
    18b4:	f84d 7d04 	str.w	r7, [sp, #-4]!
    18b8:	b083      	sub	sp, #12
    18ba:	af00      	add	r7, sp, #0
    18bc:	6078      	str	r0, [r7, #4]
/home/hrl/optee/optee_os/lib/libutee/tee_api.c:226
    18be:	4b06      	ldr	r3, [pc, #24]	; (18d8 <TEE_SetInstanceData+0x24>)
    18c0:	447b      	add	r3, pc
    18c2:	461a      	mov	r2, r3
    18c4:	687b      	ldr	r3, [r7, #4]
    18c6:	6013      	str	r3, [r2, #0]
/home/hrl/optee/optee_os/lib/libutee/tee_api.c:227
    18c8:	bf00      	nop
    18ca:	f107 070c 	add.w	r7, r7, #12
    18ce:	46bd      	mov	sp, r7
    18d0:	f85d 7b04 	ldr.w	r7, [sp], #4
    18d4:	4770      	bx	lr
    18d6:	bf00      	nop
    18d8:	00019848 	.word	0x00019848

000018dc <TEE_GetInstanceData>:
TEE_GetInstanceData():
/home/hrl/optee/optee_os/lib/libutee/tee_api.c:230
    18dc:	f84d 7d04 	str.w	r7, [sp, #-4]!
    18e0:	af00      	add	r7, sp, #0
/home/hrl/optee/optee_os/lib/libutee/tee_api.c:231
    18e2:	4b04      	ldr	r3, [pc, #16]	; (18f4 <TEE_GetInstanceData+0x18>)
    18e4:	447b      	add	r3, pc
    18e6:	681b      	ldr	r3, [r3, #0]
/home/hrl/optee/optee_os/lib/libutee/tee_api.c:232
    18e8:	4618      	mov	r0, r3
    18ea:	46bd      	mov	sp, r7
    18ec:	f85d 7b04 	ldr.w	r7, [sp], #4
    18f0:	4770      	bx	lr
    18f2:	bf00      	nop
    18f4:	00019824 	.word	0x00019824

000018f8 <TEE_MemMove>:
TEE_MemMove():
/home/hrl/optee/optee_os/lib/libutee/tee_api.c:235
    18f8:	e96d 7e02 	strd	r7, lr, [sp, #-8]!
    18fc:	b084      	sub	sp, #16
    18fe:	af00      	add	r7, sp, #0
    1900:	60f8      	str	r0, [r7, #12]
    1902:	60b9      	str	r1, [r7, #8]
    1904:	607a      	str	r2, [r7, #4]
/home/hrl/optee/optee_os/lib/libutee/tee_api.c:236
    1906:	687a      	ldr	r2, [r7, #4]
    1908:	68b9      	ldr	r1, [r7, #8]
    190a:	68f8      	ldr	r0, [r7, #12]
    190c:	f00a f980 	bl	bc10 <memmove>
    1910:	4603      	mov	r3, r0
/home/hrl/optee/optee_os/lib/libutee/tee_api.c:237
    1912:	4618      	mov	r0, r3
    1914:	f107 0710 	add.w	r7, r7, #16
    1918:	46bd      	mov	sp, r7
    191a:	bd80      	pop	{r7, pc}

0000191c <TEE_MemCompare>:
TEE_MemCompare():
/home/hrl/optee/optee_os/lib/libutee/tee_api.c:240
    191c:	e96d 7e02 	strd	r7, lr, [sp, #-8]!
    1920:	b084      	sub	sp, #16
    1922:	af00      	add	r7, sp, #0
    1924:	60f8      	str	r0, [r7, #12]
    1926:	60b9      	str	r1, [r7, #8]
    1928:	607a      	str	r2, [r7, #4]
/home/hrl/optee/optee_os/lib/libutee/tee_api.c:241
    192a:	687a      	ldr	r2, [r7, #4]
    192c:	68b9      	ldr	r1, [r7, #8]
    192e:	68f8      	ldr	r0, [r7, #12]
    1930:	f00a f899 	bl	ba66 <memcmp>
    1934:	4603      	mov	r3, r0
/home/hrl/optee/optee_os/lib/libutee/tee_api.c:242
    1936:	4618      	mov	r0, r3
    1938:	f107 0710 	add.w	r7, r7, #16
    193c:	46bd      	mov	sp, r7
    193e:	bd80      	pop	{r7, pc}

00001940 <TEE_MemFill>:
TEE_MemFill():
/home/hrl/optee/optee_os/lib/libutee/tee_api.c:245
    1940:	e96d 7e02 	strd	r7, lr, [sp, #-8]!
    1944:	b084      	sub	sp, #16
    1946:	af00      	add	r7, sp, #0
    1948:	60f8      	str	r0, [r7, #12]
    194a:	60b9      	str	r1, [r7, #8]
    194c:	607a      	str	r2, [r7, #4]
/home/hrl/optee/optee_os/lib/libutee/tee_api.c:246
    194e:	68bb      	ldr	r3, [r7, #8]
    1950:	687a      	ldr	r2, [r7, #4]
    1952:	4619      	mov	r1, r3
    1954:	68f8      	ldr	r0, [r7, #12]
    1956:	f00a f9fa 	bl	bd4e <memset>
    195a:	4603      	mov	r3, r0
/home/hrl/optee/optee_os/lib/libutee/tee_api.c:247
    195c:	4618      	mov	r0, r3
    195e:	f107 0710 	add.w	r7, r7, #16
    1962:	46bd      	mov	sp, r7
    1964:	bd80      	pop	{r7, pc}

00001966 <TEE_GetSystemTime>:
TEE_GetSystemTime():
/home/hrl/optee/optee_os/lib/libutee/tee_api.c:252
    1966:	e96d 7e02 	strd	r7, lr, [sp, #-8]!
    196a:	b084      	sub	sp, #16
    196c:	af00      	add	r7, sp, #0
    196e:	6078      	str	r0, [r7, #4]
/home/hrl/optee/optee_os/lib/libutee/tee_api.c:253
    1970:	6879      	ldr	r1, [r7, #4]
    1972:	f04f 0000 	mov.w	r0, #0
    1976:	f003 e93a 	blx	4bec <utee_get_time>
    197a:	60f8      	str	r0, [r7, #12]
/home/hrl/optee/optee_os/lib/libutee/tee_api.c:255
    197c:	68fb      	ldr	r3, [r7, #12]
    197e:	2b00      	cmp	r3, #0
    1980:	d002      	beq.n	1988 <TEE_GetSystemTime+0x22>
/home/hrl/optee/optee_os/lib/libutee/tee_api.c:256
    1982:	68f8      	ldr	r0, [r7, #12]
    1984:	f009 ffd8 	bl	b938 <TEE_Panic>
/home/hrl/optee/optee_os/lib/libutee/tee_api.c:257
    1988:	bf00      	nop
    198a:	f107 0710 	add.w	r7, r7, #16
    198e:	46bd      	mov	sp, r7
    1990:	bd80      	pop	{r7, pc}

00001992 <TEE_Wait>:
TEE_Wait():
/home/hrl/optee/optee_os/lib/libutee/tee_api.c:260
    1992:	e96d 7e02 	strd	r7, lr, [sp, #-8]!
    1996:	b084      	sub	sp, #16
    1998:	af00      	add	r7, sp, #0
    199a:	6078      	str	r0, [r7, #4]
/home/hrl/optee/optee_os/lib/libutee/tee_api.c:261
    199c:	6878      	ldr	r0, [r7, #4]
    199e:	f003 e91c 	blx	4bd8 <utee_wait>
    19a2:	60f8      	str	r0, [r7, #12]
/home/hrl/optee/optee_os/lib/libutee/tee_api.c:263
    19a4:	68fb      	ldr	r3, [r7, #12]
    19a6:	2b00      	cmp	r3, #0
    19a8:	d009      	beq.n	19be <TEE_Wait+0x2c>
/home/hrl/optee/optee_os/lib/libutee/tee_api.c:263 (discriminator 1)
    19aa:	68fa      	ldr	r2, [r7, #12]
    19ac:	f04f 0302 	mov.w	r3, #2
    19b0:	f6cf 73ff 	movt	r3, #65535	; 0xffff
    19b4:	429a      	cmp	r2, r3
    19b6:	d002      	beq.n	19be <TEE_Wait+0x2c>
/home/hrl/optee/optee_os/lib/libutee/tee_api.c:264
    19b8:	68f8      	ldr	r0, [r7, #12]
    19ba:	f009 ffbd 	bl	b938 <TEE_Panic>
/home/hrl/optee/optee_os/lib/libutee/tee_api.c:266
    19be:	68fb      	ldr	r3, [r7, #12]
/home/hrl/optee/optee_os/lib/libutee/tee_api.c:267
    19c0:	4618      	mov	r0, r3
    19c2:	f107 0710 	add.w	r7, r7, #16
    19c6:	46bd      	mov	sp, r7
    19c8:	bd80      	pop	{r7, pc}

000019ca <TEE_GetTAPersistentTime>:
TEE_GetTAPersistentTime():
/home/hrl/optee/optee_os/lib/libutee/tee_api.c:270
    19ca:	e96d 7e02 	strd	r7, lr, [sp, #-8]!
    19ce:	b084      	sub	sp, #16
    19d0:	af00      	add	r7, sp, #0
    19d2:	6078      	str	r0, [r7, #4]
/home/hrl/optee/optee_os/lib/libutee/tee_api.c:273
    19d4:	6879      	ldr	r1, [r7, #4]
    19d6:	f04f 0001 	mov.w	r0, #1
    19da:	f003 e908 	blx	4bec <utee_get_time>
    19de:	60f8      	str	r0, [r7, #12]
/home/hrl/optee/optee_os/lib/libutee/tee_api.c:275
    19e0:	68fb      	ldr	r3, [r7, #12]
    19e2:	2b00      	cmp	r3, #0
    19e4:	d00e      	beq.n	1a04 <TEE_GetTAPersistentTime+0x3a>
/home/hrl/optee/optee_os/lib/libutee/tee_api.c:275 (discriminator 1)
    19e6:	68fa      	ldr	r2, [r7, #12]
    19e8:	f243 030f 	movw	r3, #12303	; 0x300f
    19ec:	f6cf 73ff 	movt	r3, #65535	; 0xffff
    19f0:	429a      	cmp	r2, r3
    19f2:	d007      	beq.n	1a04 <TEE_GetTAPersistentTime+0x3a>
/home/hrl/optee/optee_os/lib/libutee/tee_api.c:276
    19f4:	687b      	ldr	r3, [r7, #4]
    19f6:	f04f 0200 	mov.w	r2, #0
    19fa:	601a      	str	r2, [r3, #0]
/home/hrl/optee/optee_os/lib/libutee/tee_api.c:277
    19fc:	687b      	ldr	r3, [r7, #4]
    19fe:	f04f 0200 	mov.w	r2, #0
    1a02:	605a      	str	r2, [r3, #4]
/home/hrl/optee/optee_os/lib/libutee/tee_api.c:280
    1a04:	68fb      	ldr	r3, [r7, #12]
    1a06:	2b00      	cmp	r3, #0
    1a08:	d01b      	beq.n	1a42 <TEE_GetTAPersistentTime+0x78>
/home/hrl/optee/optee_os/lib/libutee/tee_api.c:280 (discriminator 1)
    1a0a:	68fb      	ldr	r3, [r7, #12]
    1a0c:	f513 4f30 	cmn.w	r3, #45056	; 0xb000
    1a10:	d017      	beq.n	1a42 <TEE_GetTAPersistentTime+0x78>
/home/hrl/optee/optee_os/lib/libutee/tee_api.c:281
    1a12:	68fa      	ldr	r2, [r7, #12]
    1a14:	f245 0301 	movw	r3, #20481	; 0x5001
    1a18:	f6cf 73ff 	movt	r3, #65535	; 0xffff
    1a1c:	429a      	cmp	r2, r3
    1a1e:	d010      	beq.n	1a42 <TEE_GetTAPersistentTime+0x78>
/home/hrl/optee/optee_os/lib/libutee/tee_api.c:282
    1a20:	68fa      	ldr	r2, [r7, #12]
    1a22:	f243 030f 	movw	r3, #12303	; 0x300f
    1a26:	f6cf 73ff 	movt	r3, #65535	; 0xffff
    1a2a:	429a      	cmp	r2, r3
    1a2c:	d009      	beq.n	1a42 <TEE_GetTAPersistentTime+0x78>
/home/hrl/optee/optee_os/lib/libutee/tee_api.c:283
    1a2e:	68fa      	ldr	r2, [r7, #12]
    1a30:	f04f 030c 	mov.w	r3, #12
    1a34:	f6cf 73ff 	movt	r3, #65535	; 0xffff
    1a38:	429a      	cmp	r2, r3
    1a3a:	d002      	beq.n	1a42 <TEE_GetTAPersistentTime+0x78>
/home/hrl/optee/optee_os/lib/libutee/tee_api.c:285
    1a3c:	68f8      	ldr	r0, [r7, #12]
    1a3e:	f009 ff7b 	bl	b938 <TEE_Panic>
/home/hrl/optee/optee_os/lib/libutee/tee_api.c:287
    1a42:	68fb      	ldr	r3, [r7, #12]
/home/hrl/optee/optee_os/lib/libutee/tee_api.c:288
    1a44:	4618      	mov	r0, r3
    1a46:	f107 0710 	add.w	r7, r7, #16
    1a4a:	46bd      	mov	sp, r7
    1a4c:	bd80      	pop	{r7, pc}

00001a4e <TEE_SetTAPersistentTime>:
TEE_SetTAPersistentTime():
/home/hrl/optee/optee_os/lib/libutee/tee_api.c:291
    1a4e:	e96d 7e02 	strd	r7, lr, [sp, #-8]!
    1a52:	b084      	sub	sp, #16
    1a54:	af00      	add	r7, sp, #0
    1a56:	6078      	str	r0, [r7, #4]
/home/hrl/optee/optee_os/lib/libutee/tee_api.c:294
    1a58:	6878      	ldr	r0, [r7, #4]
    1a5a:	f003 e8d2 	blx	4c00 <utee_set_ta_time>
    1a5e:	60f8      	str	r0, [r7, #12]
/home/hrl/optee/optee_os/lib/libutee/tee_api.c:296
    1a60:	68fb      	ldr	r3, [r7, #12]
    1a62:	2b00      	cmp	r3, #0
    1a64:	d010      	beq.n	1a88 <TEE_SetTAPersistentTime+0x3a>
/home/hrl/optee/optee_os/lib/libutee/tee_api.c:296 (discriminator 1)
    1a66:	68fa      	ldr	r2, [r7, #12]
    1a68:	f04f 030c 	mov.w	r3, #12
    1a6c:	f6cf 73ff 	movt	r3, #65535	; 0xffff
    1a70:	429a      	cmp	r2, r3
    1a72:	d009      	beq.n	1a88 <TEE_SetTAPersistentTime+0x3a>
/home/hrl/optee/optee_os/lib/libutee/tee_api.c:297
    1a74:	68fa      	ldr	r2, [r7, #12]
    1a76:	f243 0341 	movw	r3, #12353	; 0x3041
    1a7a:	f6cf 73ff 	movt	r3, #65535	; 0xffff
    1a7e:	429a      	cmp	r2, r3
    1a80:	d002      	beq.n	1a88 <TEE_SetTAPersistentTime+0x3a>
/home/hrl/optee/optee_os/lib/libutee/tee_api.c:299
    1a82:	68f8      	ldr	r0, [r7, #12]
    1a84:	f009 ff58 	bl	b938 <TEE_Panic>
/home/hrl/optee/optee_os/lib/libutee/tee_api.c:301
    1a88:	68fb      	ldr	r3, [r7, #12]
/home/hrl/optee/optee_os/lib/libutee/tee_api.c:302
    1a8a:	4618      	mov	r0, r3
    1a8c:	f107 0710 	add.w	r7, r7, #16
    1a90:	46bd      	mov	sp, r7
    1a92:	bd80      	pop	{r7, pc}

00001a94 <TEE_GetREETime>:
TEE_GetREETime():
/home/hrl/optee/optee_os/lib/libutee/tee_api.c:305
    1a94:	e96d 7e02 	strd	r7, lr, [sp, #-8]!
    1a98:	b084      	sub	sp, #16
    1a9a:	af00      	add	r7, sp, #0
    1a9c:	6078      	str	r0, [r7, #4]
/home/hrl/optee/optee_os/lib/libutee/tee_api.c:306
    1a9e:	6879      	ldr	r1, [r7, #4]
    1aa0:	f04f 0002 	mov.w	r0, #2
    1aa4:	f003 e8a2 	blx	4bec <utee_get_time>
    1aa8:	60f8      	str	r0, [r7, #12]
/home/hrl/optee/optee_os/lib/libutee/tee_api.c:308
    1aaa:	68fb      	ldr	r3, [r7, #12]
    1aac:	2b00      	cmp	r3, #0
    1aae:	d002      	beq.n	1ab6 <TEE_GetREETime+0x22>
/home/hrl/optee/optee_os/lib/libutee/tee_api.c:309
    1ab0:	68f8      	ldr	r0, [r7, #12]
    1ab2:	f009 ff41 	bl	b938 <TEE_Panic>
/home/hrl/optee/optee_os/lib/libutee/tee_api.c:310
    1ab6:	bf00      	nop
    1ab8:	f107 0710 	add.w	r7, r7, #16
    1abc:	46bd      	mov	sp, r7
    1abe:	bd80      	pop	{r7, pc}

00001ac0 <TEE_Malloc>:
TEE_Malloc():
/home/hrl/optee/optee_os/lib/libutee/tee_api.c:313
    1ac0:	e96d 7e02 	strd	r7, lr, [sp, #-8]!
    1ac4:	b082      	sub	sp, #8
    1ac6:	af00      	add	r7, sp, #0
    1ac8:	6078      	str	r0, [r7, #4]
    1aca:	6039      	str	r1, [r7, #0]
/home/hrl/optee/optee_os/lib/libutee/tee_api.c:314
    1acc:	6839      	ldr	r1, [r7, #0]
    1ace:	6878      	ldr	r0, [r7, #4]
    1ad0:	f003 fcae 	bl	5430 <tee_user_mem_alloc>
    1ad4:	4603      	mov	r3, r0
/home/hrl/optee/optee_os/lib/libutee/tee_api.c:315
    1ad6:	4618      	mov	r0, r3
    1ad8:	f107 0708 	add.w	r7, r7, #8
    1adc:	46bd      	mov	sp, r7
    1ade:	bd80      	pop	{r7, pc}

00001ae0 <TEE_Realloc>:
TEE_Realloc():
/home/hrl/optee/optee_os/lib/libutee/tee_api.c:318
    1ae0:	e96d 7e02 	strd	r7, lr, [sp, #-8]!
    1ae4:	b082      	sub	sp, #8
    1ae6:	af00      	add	r7, sp, #0
    1ae8:	6078      	str	r0, [r7, #4]
    1aea:	6039      	str	r1, [r7, #0]
/home/hrl/optee/optee_os/lib/libutee/tee_api.c:323
    1aec:	6839      	ldr	r1, [r7, #0]
    1aee:	6878      	ldr	r0, [r7, #4]
    1af0:	f003 fd42 	bl	5578 <tee_user_mem_realloc>
    1af4:	4603      	mov	r3, r0
/home/hrl/optee/optee_os/lib/libutee/tee_api.c:324
    1af6:	4618      	mov	r0, r3
    1af8:	f107 0708 	add.w	r7, r7, #8
    1afc:	46bd      	mov	sp, r7
    1afe:	bd80      	pop	{r7, pc}

00001b00 <TEE_Free>:
TEE_Free():
/home/hrl/optee/optee_os/lib/libutee/tee_api.c:327
    1b00:	e96d 7e02 	strd	r7, lr, [sp, #-8]!
    1b04:	b082      	sub	sp, #8
    1b06:	af00      	add	r7, sp, #0
    1b08:	6078      	str	r0, [r7, #4]
/home/hrl/optee/optee_os/lib/libutee/tee_api.c:328
    1b0a:	6878      	ldr	r0, [r7, #4]
    1b0c:	f003 fd8a 	bl	5624 <tee_user_mem_free>
/home/hrl/optee/optee_os/lib/libutee/tee_api.c:329
    1b10:	bf00      	nop
    1b12:	f107 0708 	add.w	r7, r7, #8
    1b16:	46bd      	mov	sp, r7
    1b18:	bd80      	pop	{r7, pc}

00001b1a <TEE_CacheClean>:
TEE_CacheClean():
/home/hrl/optee/optee_os/lib/libutee/tee_api.c:333
    1b1a:	e96d 7e02 	strd	r7, lr, [sp, #-8]!
    1b1e:	b082      	sub	sp, #8
    1b20:	af00      	add	r7, sp, #0
    1b22:	6078      	str	r0, [r7, #4]
    1b24:	6039      	str	r1, [r7, #0]
/home/hrl/optee/optee_os/lib/libutee/tee_api.c:334
    1b26:	f04f 0200 	mov.w	r2, #0
    1b2a:	6839      	ldr	r1, [r7, #0]
    1b2c:	6878      	ldr	r0, [r7, #4]
    1b2e:	f003 eab4 	blx	5098 <utee_cache_operation>
    1b32:	4603      	mov	r3, r0
/home/hrl/optee/optee_os/lib/libutee/tee_api.c:335
    1b34:	4618      	mov	r0, r3
    1b36:	f107 0708 	add.w	r7, r7, #8
    1b3a:	46bd      	mov	sp, r7
    1b3c:	bd80      	pop	{r7, pc}

00001b3e <TEE_CacheFlush>:
TEE_CacheFlush():
/home/hrl/optee/optee_os/lib/libutee/tee_api.c:337
    1b3e:	e96d 7e02 	strd	r7, lr, [sp, #-8]!
    1b42:	b082      	sub	sp, #8
    1b44:	af00      	add	r7, sp, #0
    1b46:	6078      	str	r0, [r7, #4]
    1b48:	6039      	str	r1, [r7, #0]
/home/hrl/optee/optee_os/lib/libutee/tee_api.c:338
    1b4a:	f04f 0201 	mov.w	r2, #1
    1b4e:	6839      	ldr	r1, [r7, #0]
    1b50:	6878      	ldr	r0, [r7, #4]
    1b52:	f003 eaa2 	blx	5098 <utee_cache_operation>
    1b56:	4603      	mov	r3, r0
/home/hrl/optee/optee_os/lib/libutee/tee_api.c:339
    1b58:	4618      	mov	r0, r3
    1b5a:	f107 0708 	add.w	r7, r7, #8
    1b5e:	46bd      	mov	sp, r7
    1b60:	bd80      	pop	{r7, pc}

00001b62 <TEE_CacheInvalidate>:
TEE_CacheInvalidate():
/home/hrl/optee/optee_os/lib/libutee/tee_api.c:342
    1b62:	e96d 7e02 	strd	r7, lr, [sp, #-8]!
    1b66:	b082      	sub	sp, #8
    1b68:	af00      	add	r7, sp, #0
    1b6a:	6078      	str	r0, [r7, #4]
    1b6c:	6039      	str	r1, [r7, #0]
/home/hrl/optee/optee_os/lib/libutee/tee_api.c:343
    1b6e:	f04f 0202 	mov.w	r2, #2
    1b72:	6839      	ldr	r1, [r7, #0]
    1b74:	6878      	ldr	r0, [r7, #4]
    1b76:	f003 ea90 	blx	5098 <utee_cache_operation>
    1b7a:	4603      	mov	r3, r0
/home/hrl/optee/optee_os/lib/libutee/tee_api.c:344
    1b7c:	4618      	mov	r0, r3
    1b7e:	f107 0708 	add.w	r7, r7, #8
    1b82:	46bd      	mov	sp, r7
    1b84:	bd80      	pop	{r7, pc}
    1b86:	bf00      	nop

00001b88 <TEE_AllocateOperation>:
TEE_AllocateOperation():
/home/hrl/optee/optee_os/lib/libutee/tee_api_operations.c:59
    1b88:	e96d 7e02 	strd	r7, lr, [sp, #-8]!
    1b8c:	b090      	sub	sp, #64	; 0x40
    1b8e:	af02      	add	r7, sp, #8
    1b90:	60f8      	str	r0, [r7, #12]
    1b92:	60b9      	str	r1, [r7, #8]
    1b94:	607a      	str	r2, [r7, #4]
    1b96:	603b      	str	r3, [r7, #0]
/home/hrl/optee/optee_os/lib/libutee/tee_api_operations.c:61
    1b98:	f04f 0300 	mov.w	r3, #0
    1b9c:	61bb      	str	r3, [r7, #24]
/home/hrl/optee/optee_os/lib/libutee/tee_api_operations.c:62
    1b9e:	f04f 0300 	mov.w	r3, #0
    1ba2:	633b      	str	r3, [r7, #48]	; 0x30
/home/hrl/optee/optee_os/lib/libutee/tee_api_operations.c:63
    1ba4:	f04f 0301 	mov.w	r3, #1
    1ba8:	62fb      	str	r3, [r7, #44]	; 0x2c
/home/hrl/optee/optee_os/lib/libutee/tee_api_operations.c:65
    1baa:	f04f 0300 	mov.w	r3, #0
    1bae:	f887 3027 	strb.w	r3, [r7, #39]	; 0x27
/home/hrl/optee/optee_os/lib/libutee/tee_api_operations.c:66
    1bb2:	f04f 0300 	mov.w	r3, #0
    1bb6:	f887 3026 	strb.w	r3, [r7, #38]	; 0x26
/home/hrl/optee/optee_os/lib/libutee/tee_api_operations.c:68
    1bba:	68fb      	ldr	r3, [r7, #12]
    1bbc:	2b00      	cmp	r3, #0
    1bbe:	d103      	bne.n	1bc8 <TEE_AllocateOperation+0x40>
/home/hrl/optee/optee_os/lib/libutee/tee_api_operations.c:69
    1bc0:	f04f 0000 	mov.w	r0, #0
    1bc4:	f009 feb8 	bl	b938 <TEE_Panic>
/home/hrl/optee/optee_os/lib/libutee/tee_api_operations.c:71
    1bc8:	68ba      	ldr	r2, [r7, #8]
    1bca:	f44f 6382 	mov.w	r3, #1040	; 0x410
    1bce:	f2c1 0300 	movt	r3, #4096	; 0x1000
    1bd2:	429a      	cmp	r2, r3
    1bd4:	d102      	bne.n	1bdc <TEE_AllocateOperation+0x54>
/home/hrl/optee/optee_os/lib/libutee/tee_api_operations.c:72
    1bd6:	f44f 2300 	mov.w	r3, #524288	; 0x80000
    1bda:	633b      	str	r3, [r7, #48]	; 0x30
/home/hrl/optee/optee_os/lib/libutee/tee_api_operations.c:75
    1bdc:	68bb      	ldr	r3, [r7, #8]
    1bde:	f244 1231 	movw	r2, #16689	; 0x4131
    1be2:	f2c7 0200 	movt	r2, #28672	; 0x7000
    1be6:	4293      	cmp	r3, r2
    1be8:	f000 8084 	beq.w	1cf4 <TEE_AllocateOperation+0x16c>
    1bec:	f244 1231 	movw	r2, #16689	; 0x4131
    1bf0:	f2c7 0200 	movt	r2, #28672	; 0x7000
    1bf4:	4293      	cmp	r3, r2
    1bf6:	d82b      	bhi.n	1c50 <TEE_AllocateOperation+0xc8>
    1bf8:	f242 1231 	movw	r2, #8497	; 0x2131
    1bfc:	f2c7 0200 	movt	r2, #28672	; 0x7000
    1c00:	4293      	cmp	r3, r2
    1c02:	d051      	beq.n	1ca8 <TEE_AllocateOperation+0x120>
    1c04:	f242 1231 	movw	r2, #8497	; 0x2131
    1c08:	f2c7 0200 	movt	r2, #28672	; 0x7000
    1c0c:	4293      	cmp	r3, r2
    1c0e:	d80c      	bhi.n	1c2a <TEE_AllocateOperation+0xa2>
    1c10:	f241 0241 	movw	r2, #4161	; 0x1041
    1c14:	f2c7 0200 	movt	r2, #28672	; 0x7000
    1c18:	4293      	cmp	r3, r2
    1c1a:	d078      	beq.n	1d0e <TEE_AllocateOperation+0x186>
    1c1c:	f242 0241 	movw	r2, #8257	; 0x2041
    1c20:	f2c7 0200 	movt	r2, #28672	; 0x7000
    1c24:	4293      	cmp	r3, r2
    1c26:	d07a      	beq.n	1d1e <TEE_AllocateOperation+0x196>
/home/hrl/optee/optee_os/lib/libutee/tee_api_operations.c:126
    1c28:	e0ac      	b.n	1d84 <TEE_AllocateOperation+0x1fc>
/home/hrl/optee/optee_os/lib/libutee/tee_api_operations.c:75
    1c2a:	f243 1231 	movw	r2, #12593	; 0x3131
    1c2e:	f2c7 0200 	movt	r2, #28672	; 0x7000
    1c32:	4293      	cmp	r3, r2
    1c34:	d055      	beq.n	1ce2 <TEE_AllocateOperation+0x15a>
    1c36:	f244 0241 	movw	r2, #16449	; 0x4041
    1c3a:	f2c7 0200 	movt	r2, #28672	; 0x7000
    1c3e:	4293      	cmp	r3, r2
    1c40:	d07e      	beq.n	1d40 <TEE_AllocateOperation+0x1b8>
    1c42:	f243 0241 	movw	r2, #12353	; 0x3041
    1c46:	f2c7 0200 	movt	r2, #28672	; 0x7000
    1c4a:	4293      	cmp	r3, r2
    1c4c:	d06f      	beq.n	1d2e <TEE_AllocateOperation+0x1a6>
/home/hrl/optee/optee_os/lib/libutee/tee_api_operations.c:126
    1c4e:	e099      	b.n	1d84 <TEE_AllocateOperation+0x1fc>
/home/hrl/optee/optee_os/lib/libutee/tee_api_operations.c:75
    1c50:	f242 0242 	movw	r2, #8258	; 0x2042
    1c54:	f2c8 0200 	movt	r2, #32768	; 0x8000
    1c58:	4293      	cmp	r3, r2
    1c5a:	d060      	beq.n	1d1e <TEE_AllocateOperation+0x196>
    1c5c:	f242 0242 	movw	r2, #8258	; 0x2042
    1c60:	f2c8 0200 	movt	r2, #32768	; 0x8000
    1c64:	4293      	cmp	r3, r2
    1c66:	d80c      	bhi.n	1c82 <TEE_AllocateOperation+0xfa>
    1c68:	f245 0241 	movw	r2, #20545	; 0x5041
    1c6c:	f2c7 0200 	movt	r2, #28672	; 0x7000
    1c70:	4293      	cmp	r3, r2
    1c72:	d06e      	beq.n	1d52 <TEE_AllocateOperation+0x1ca>
    1c74:	f241 0242 	movw	r2, #4162	; 0x1042
    1c78:	f2c8 0200 	movt	r2, #32768	; 0x8000
    1c7c:	4293      	cmp	r3, r2
    1c7e:	d046      	beq.n	1d0e <TEE_AllocateOperation+0x186>
/home/hrl/optee/optee_os/lib/libutee/tee_api_operations.c:126
    1c80:	e080      	b.n	1d84 <TEE_AllocateOperation+0x1fc>
/home/hrl/optee/optee_os/lib/libutee/tee_api_operations.c:75
    1c82:	f244 0242 	movw	r2, #16450	; 0x4042
    1c86:	f2c8 0200 	movt	r2, #32768	; 0x8000
    1c8a:	4293      	cmp	r3, r2
    1c8c:	d058      	beq.n	1d40 <TEE_AllocateOperation+0x1b8>
    1c8e:	f245 0242 	movw	r2, #20546	; 0x5042
    1c92:	f2c8 0200 	movt	r2, #32768	; 0x8000
    1c96:	4293      	cmp	r3, r2
    1c98:	d05b      	beq.n	1d52 <TEE_AllocateOperation+0x1ca>
    1c9a:	f243 0242 	movw	r2, #12354	; 0x3042
    1c9e:	f2c8 0200 	movt	r2, #32768	; 0x8000
    1ca2:	4293      	cmp	r3, r2
    1ca4:	d043      	beq.n	1d2e <TEE_AllocateOperation+0x1a6>
/home/hrl/optee/optee_os/lib/libutee/tee_api_operations.c:126
    1ca6:	e06d      	b.n	1d84 <TEE_AllocateOperation+0x1fc>
/home/hrl/optee/optee_os/lib/libutee/tee_api_operations.c:77
    1ca8:	683b      	ldr	r3, [r7, #0]
    1caa:	f5b3 7f00 	cmp.w	r3, #512	; 0x200
    1cae:	d205      	bcs.n	1cbc <TEE_AllocateOperation+0x134>
/home/hrl/optee/optee_os/lib/libutee/tee_api_operations.c:78
    1cb0:	f04f 030a 	mov.w	r3, #10
    1cb4:	f6cf 73ff 	movt	r3, #65535	; 0xffff
    1cb8:	f000 bc01 	b.w	24be <TEE_AllocateOperation+0x936>
/home/hrl/optee/optee_os/lib/libutee/tee_api_operations.c:79
    1cbc:	683b      	ldr	r3, [r7, #0]
    1cbe:	f5b3 6f80 	cmp.w	r3, #1024	; 0x400
    1cc2:	d904      	bls.n	1cce <TEE_AllocateOperation+0x146>
/home/hrl/optee/optee_os/lib/libutee/tee_api_operations.c:80
    1cc4:	f04f 030a 	mov.w	r3, #10
    1cc8:	f6cf 73ff 	movt	r3, #65535	; 0xffff
    1ccc:	e3f7      	b.n	24be <TEE_AllocateOperation+0x936>
/home/hrl/optee/optee_os/lib/libutee/tee_api_operations.c:81
    1cce:	683b      	ldr	r3, [r7, #0]
    1cd0:	f003 033f 	and.w	r3, r3, #63	; 0x3f
    1cd4:	2b00      	cmp	r3, #0
    1cd6:	d046      	beq.n	1d66 <TEE_AllocateOperation+0x1de>
/home/hrl/optee/optee_os/lib/libutee/tee_api_operations.c:82
    1cd8:	f04f 030a 	mov.w	r3, #10
    1cdc:	f6cf 73ff 	movt	r3, #65535	; 0xffff
    1ce0:	e3ed      	b.n	24be <TEE_AllocateOperation+0x936>
/home/hrl/optee/optee_os/lib/libutee/tee_api_operations.c:86
    1ce2:	683b      	ldr	r3, [r7, #0]
    1ce4:	f5b3 6f00 	cmp.w	r3, #2048	; 0x800
    1ce8:	d03f      	beq.n	1d6a <TEE_AllocateOperation+0x1e2>
/home/hrl/optee/optee_os/lib/libutee/tee_api_operations.c:87
    1cea:	f04f 030a 	mov.w	r3, #10
    1cee:	f6cf 73ff 	movt	r3, #65535	; 0xffff
    1cf2:	e3e4      	b.n	24be <TEE_AllocateOperation+0x936>
/home/hrl/optee/optee_os/lib/libutee/tee_api_operations.c:91
    1cf4:	683b      	ldr	r3, [r7, #0]
    1cf6:	f5b3 6f00 	cmp.w	r3, #2048	; 0x800
    1cfa:	d038      	beq.n	1d6e <TEE_AllocateOperation+0x1e6>
/home/hrl/optee/optee_os/lib/libutee/tee_api_operations.c:91 (discriminator 1)
    1cfc:	683b      	ldr	r3, [r7, #0]
    1cfe:	f5b3 6f40 	cmp.w	r3, #3072	; 0xc00
    1d02:	d034      	beq.n	1d6e <TEE_AllocateOperation+0x1e6>
/home/hrl/optee/optee_os/lib/libutee/tee_api_operations.c:92
    1d04:	f04f 030a 	mov.w	r3, #10
    1d08:	f6cf 73ff 	movt	r3, #65535	; 0xffff
    1d0c:	e3d7      	b.n	24be <TEE_AllocateOperation+0x936>
/home/hrl/optee/optee_os/lib/libutee/tee_api_operations.c:97
    1d0e:	683b      	ldr	r3, [r7, #0]
    1d10:	2bc0      	cmp	r3, #192	; 0xc0
    1d12:	d02e      	beq.n	1d72 <TEE_AllocateOperation+0x1ea>
/home/hrl/optee/optee_os/lib/libutee/tee_api_operations.c:98
    1d14:	f04f 030a 	mov.w	r3, #10
    1d18:	f6cf 73ff 	movt	r3, #65535	; 0xffff
    1d1c:	e3cf      	b.n	24be <TEE_AllocateOperation+0x936>
/home/hrl/optee/optee_os/lib/libutee/tee_api_operations.c:103
    1d1e:	683b      	ldr	r3, [r7, #0]
    1d20:	2be0      	cmp	r3, #224	; 0xe0
    1d22:	d028      	beq.n	1d76 <TEE_AllocateOperation+0x1ee>
/home/hrl/optee/optee_os/lib/libutee/tee_api_operations.c:104
    1d24:	f04f 030a 	mov.w	r3, #10
    1d28:	f6cf 73ff 	movt	r3, #65535	; 0xffff
    1d2c:	e3c7      	b.n	24be <TEE_AllocateOperation+0x936>
/home/hrl/optee/optee_os/lib/libutee/tee_api_operations.c:109
    1d2e:	683b      	ldr	r3, [r7, #0]
    1d30:	f5b3 7f80 	cmp.w	r3, #256	; 0x100
    1d34:	d021      	beq.n	1d7a <TEE_AllocateOperation+0x1f2>
/home/hrl/optee/optee_os/lib/libutee/tee_api_operations.c:110
    1d36:	f04f 030a 	mov.w	r3, #10
    1d3a:	f6cf 73ff 	movt	r3, #65535	; 0xffff
    1d3e:	e3be      	b.n	24be <TEE_AllocateOperation+0x936>
/home/hrl/optee/optee_os/lib/libutee/tee_api_operations.c:115
    1d40:	683b      	ldr	r3, [r7, #0]
    1d42:	f5b3 7fc0 	cmp.w	r3, #384	; 0x180
    1d46:	d01a      	beq.n	1d7e <TEE_AllocateOperation+0x1f6>
/home/hrl/optee/optee_os/lib/libutee/tee_api_operations.c:116
    1d48:	f04f 030a 	mov.w	r3, #10
    1d4c:	f6cf 73ff 	movt	r3, #65535	; 0xffff
    1d50:	e3b5      	b.n	24be <TEE_AllocateOperation+0x936>
/home/hrl/optee/optee_os/lib/libutee/tee_api_operations.c:121
    1d52:	683b      	ldr	r3, [r7, #0]
    1d54:	f240 2209 	movw	r2, #521	; 0x209
    1d58:	4293      	cmp	r3, r2
    1d5a:	d012      	beq.n	1d82 <TEE_AllocateOperation+0x1fa>
/home/hrl/optee/optee_os/lib/libutee/tee_api_operations.c:122
    1d5c:	f04f 030a 	mov.w	r3, #10
    1d60:	f6cf 73ff 	movt	r3, #65535	; 0xffff
    1d64:	e3ab      	b.n	24be <TEE_AllocateOperation+0x936>
/home/hrl/optee/optee_os/lib/libutee/tee_api_operations.c:83
    1d66:	bf00      	nop
    1d68:	e00c      	b.n	1d84 <TEE_AllocateOperation+0x1fc>
/home/hrl/optee/optee_os/lib/libutee/tee_api_operations.c:88
    1d6a:	bf00      	nop
    1d6c:	e00a      	b.n	1d84 <TEE_AllocateOperation+0x1fc>
/home/hrl/optee/optee_os/lib/libutee/tee_api_operations.c:93
    1d6e:	bf00      	nop
    1d70:	e008      	b.n	1d84 <TEE_AllocateOperation+0x1fc>
/home/hrl/optee/optee_os/lib/libutee/tee_api_operations.c:99
    1d72:	bf00      	nop
    1d74:	e006      	b.n	1d84 <TEE_AllocateOperation+0x1fc>
/home/hrl/optee/optee_os/lib/libutee/tee_api_operations.c:105
    1d76:	bf00      	nop
    1d78:	e004      	b.n	1d84 <TEE_AllocateOperation+0x1fc>
/home/hrl/optee/optee_os/lib/libutee/tee_api_operations.c:111
    1d7a:	bf00      	nop
    1d7c:	e002      	b.n	1d84 <TEE_AllocateOperation+0x1fc>
/home/hrl/optee/optee_os/lib/libutee/tee_api_operations.c:117
    1d7e:	bf00      	nop
    1d80:	e000      	b.n	1d84 <TEE_AllocateOperation+0x1fc>
/home/hrl/optee/optee_os/lib/libutee/tee_api_operations.c:123
    1d82:	bf00      	nop
/home/hrl/optee/optee_os/lib/libutee/tee_api_operations.c:130
    1d84:	68bb      	ldr	r3, [r7, #8]
    1d86:	f242 1231 	movw	r2, #8497	; 0x2131
    1d8a:	f2c7 0200 	movt	r2, #28672	; 0x7000
    1d8e:	4293      	cmp	r3, r2
    1d90:	f000 822c 	beq.w	21ec <TEE_AllocateOperation+0x664>
    1d94:	f242 1231 	movw	r2, #8497	; 0x2131
    1d98:	f2c7 0200 	movt	r2, #28672	; 0x7000
    1d9c:	4293      	cmp	r3, r2
    1d9e:	f200 80fe 	bhi.w	1f9e <TEE_AllocateOperation+0x416>
    1da2:	f240 5211 	movw	r2, #1297	; 0x511
    1da6:	f2c3 0200 	movt	r2, #12288	; 0x3000
    1daa:	4293      	cmp	r3, r2
    1dac:	d86d      	bhi.n	1e8a <TEE_AllocateOperation+0x302>
    1dae:	f44f 62a2 	mov.w	r2, #1296	; 0x510
    1db2:	f2c3 0200 	movt	r2, #12288	; 0x3000
    1db6:	4293      	cmp	r3, r2
    1db8:	f080 827d 	bcs.w	22b6 <TEE_AllocateOperation+0x72e>
    1dbc:	f44f 7204 	mov.w	r2, #528	; 0x210
    1dc0:	f2c1 0200 	movt	r2, #4096	; 0x1000
    1dc4:	4293      	cmp	r3, r2
    1dc6:	f000 81fe 	beq.w	21c6 <TEE_AllocateOperation+0x63e>
    1dca:	f44f 7204 	mov.w	r2, #528	; 0x210
    1dce:	f2c1 0200 	movt	r2, #4096	; 0x1000
    1dd2:	4293      	cmp	r3, r2
    1dd4:	d82a      	bhi.n	1e2c <TEE_AllocateOperation+0x2a4>
    1dd6:	f04f 0213 	mov.w	r2, #19
    1dda:	f2c1 0200 	movt	r2, #4096	; 0x1000
    1dde:	4293      	cmp	r3, r2
    1de0:	f000 81e6 	beq.w	21b0 <TEE_AllocateOperation+0x628>
    1de4:	f04f 0213 	mov.w	r2, #19
    1de8:	f2c1 0200 	movt	r2, #4096	; 0x1000
    1dec:	4293      	cmp	r3, r2
    1dee:	d807      	bhi.n	1e00 <TEE_AllocateOperation+0x278>
    1df0:	f103 4370 	add.w	r3, r3, #4026531840	; 0xf0000000
    1df4:	f1a3 0310 	sub.w	r3, r3, #16
    1df8:	2b01      	cmp	r3, #1
    1dfa:	f200 8268 	bhi.w	22ce <TEE_AllocateOperation+0x746>
    1dfe:	e1d7      	b.n	21b0 <TEE_AllocateOperation+0x628>
    1e00:	f44f 7288 	mov.w	r2, #272	; 0x110
    1e04:	f2c1 0200 	movt	r2, #4096	; 0x1000
    1e08:	4293      	cmp	r3, r2
    1e0a:	f0c0 8260 	bcc.w	22ce <TEE_AllocateOperation+0x746>
    1e0e:	f240 1211 	movw	r2, #273	; 0x111
    1e12:	f2c1 0200 	movt	r2, #4096	; 0x1000
    1e16:	4293      	cmp	r3, r2
    1e18:	f240 81ca 	bls.w	21b0 <TEE_AllocateOperation+0x628>
    1e1c:	f240 1213 	movw	r2, #275	; 0x113
    1e20:	f2c1 0200 	movt	r2, #4096	; 0x1000
    1e24:	4293      	cmp	r3, r2
    1e26:	f000 81c3 	beq.w	21b0 <TEE_AllocateOperation+0x628>
    1e2a:	e250      	b.n	22ce <TEE_AllocateOperation+0x746>
    1e2c:	f04f 0206 	mov.w	r2, #6
    1e30:	f2c3 0200 	movt	r2, #12288	; 0x3000
    1e34:	4293      	cmp	r3, r2
    1e36:	d812      	bhi.n	1e5e <TEE_AllocateOperation+0x2d6>
    1e38:	f1b3 5f40 	cmp.w	r3, #805306368	; 0x30000000
    1e3c:	f200 823b 	bhi.w	22b6 <TEE_AllocateOperation+0x72e>
    1e40:	f44f 7244 	mov.w	r2, #784	; 0x310
    1e44:	f2c1 0200 	movt	r2, #4096	; 0x1000
    1e48:	4293      	cmp	r3, r2
    1e4a:	f000 81ad 	beq.w	21a8 <TEE_AllocateOperation+0x620>
    1e4e:	f44f 6282 	mov.w	r2, #1040	; 0x410
    1e52:	f2c1 0200 	movt	r2, #4096	; 0x1000
    1e56:	4293      	cmp	r3, r2
    1e58:	f000 81a6 	beq.w	21a8 <TEE_AllocateOperation+0x620>
    1e5c:	e237      	b.n	22ce <TEE_AllocateOperation+0x746>
    1e5e:	f44f 7288 	mov.w	r2, #272	; 0x110
    1e62:	f2c3 0200 	movt	r2, #12288	; 0x3000
    1e66:	4293      	cmp	r3, r2
    1e68:	f0c0 8231 	bcc.w	22ce <TEE_AllocateOperation+0x746>
    1e6c:	f240 1211 	movw	r2, #273	; 0x111
    1e70:	f2c3 0200 	movt	r2, #12288	; 0x3000
    1e74:	4293      	cmp	r3, r2
    1e76:	f240 821e 	bls.w	22b6 <TEE_AllocateOperation+0x72e>
    1e7a:	f240 1213 	movw	r2, #275	; 0x113
    1e7e:	f2c3 0200 	movt	r2, #12288	; 0x3000
    1e82:	4293      	cmp	r3, r2
    1e84:	f000 8217 	beq.w	22b6 <TEE_AllocateOperation+0x72e>
    1e88:	e221      	b.n	22ce <TEE_AllocateOperation+0x746>
    1e8a:	f44f 7298 	mov.w	r2, #304	; 0x130
    1e8e:	f2c6 0200 	movt	r2, #24576	; 0x6000
    1e92:	4293      	cmp	r3, r2
    1e94:	f000 81c1 	beq.w	221a <TEE_AllocateOperation+0x692>
    1e98:	f44f 7298 	mov.w	r2, #304	; 0x130
    1e9c:	f2c6 0200 	movt	r2, #24576	; 0x6000
    1ea0:	4293      	cmp	r3, r2
    1ea2:	d835      	bhi.n	1f10 <TEE_AllocateOperation+0x388>
    1ea4:	f44f 6201 	mov.w	r2, #2064	; 0x810
    1ea8:	f2c4 0200 	movt	r2, #16384	; 0x4000
    1eac:	4293      	cmp	r3, r2
    1eae:	f000 818a 	beq.w	21c6 <TEE_AllocateOperation+0x63e>
    1eb2:	f44f 6201 	mov.w	r2, #2064	; 0x810
    1eb6:	f2c4 0200 	movt	r2, #16384	; 0x4000
    1eba:	4293      	cmp	r3, r2
    1ebc:	d815      	bhi.n	1eea <TEE_AllocateOperation+0x362>
    1ebe:	f44f 62c2 	mov.w	r2, #1552	; 0x610
    1ec2:	f2c3 0200 	movt	r2, #12288	; 0x3000
    1ec6:	4293      	cmp	r3, r2
    1ec8:	f000 81f5 	beq.w	22b6 <TEE_AllocateOperation+0x72e>
    1ecc:	f44f 62e2 	mov.w	r2, #1808	; 0x710
    1ed0:	f2c4 0200 	movt	r2, #16384	; 0x4000
    1ed4:	4293      	cmp	r3, r2
    1ed6:	f000 816b 	beq.w	21b0 <TEE_AllocateOperation+0x628>
    1eda:	f240 5213 	movw	r2, #1299	; 0x513
    1ede:	f2c3 0200 	movt	r2, #12288	; 0x3000
    1ee2:	4293      	cmp	r3, r2
    1ee4:	f000 81e7 	beq.w	22b6 <TEE_AllocateOperation+0x72e>
    1ee8:	e1f1      	b.n	22ce <TEE_AllocateOperation+0x746>
    1eea:	f1b3 4fa0 	cmp.w	r3, #1342177280	; 0x50000000
    1eee:	f240 81ee 	bls.w	22ce <TEE_AllocateOperation+0x746>
    1ef2:	f04f 0206 	mov.w	r2, #6
    1ef6:	f2c5 0200 	movt	r2, #20480	; 0x5000
    1efa:	4293      	cmp	r3, r2
    1efc:	f240 81cb 	bls.w	2296 <TEE_AllocateOperation+0x70e>
    1f00:	f04f 0230 	mov.w	r2, #48	; 0x30
    1f04:	f2c6 0200 	movt	r2, #24576	; 0x6000
    1f08:	4293      	cmp	r3, r2
    1f0a:	f000 819d 	beq.w	2248 <TEE_AllocateOperation+0x6c0>
    1f0e:	e1de      	b.n	22ce <TEE_AllocateOperation+0x746>
    1f10:	f44f 720c 	mov.w	r2, #560	; 0x230
    1f14:	f2c6 0251 	movt	r2, #24657	; 0x6051
    1f18:	4293      	cmp	r3, r2
    1f1a:	f000 817e 	beq.w	221a <TEE_AllocateOperation+0x692>
    1f1e:	f44f 720c 	mov.w	r2, #560	; 0x230
    1f22:	f2c6 0251 	movt	r2, #24657	; 0x6051
    1f26:	4293      	cmp	r3, r2
    1f28:	d815      	bhi.n	1f56 <TEE_AllocateOperation+0x3ce>
    1f2a:	f44f 720c 	mov.w	r2, #560	; 0x230
    1f2e:	f2c6 0231 	movt	r2, #24625	; 0x6031
    1f32:	4293      	cmp	r3, r2
    1f34:	f000 8171 	beq.w	221a <TEE_AllocateOperation+0x692>
    1f38:	f44f 720c 	mov.w	r2, #560	; 0x230
    1f3c:	f2c6 0241 	movt	r2, #24641	; 0x6041
    1f40:	4293      	cmp	r3, r2
    1f42:	f000 816a 	beq.w	221a <TEE_AllocateOperation+0x692>
    1f46:	f44f 720c 	mov.w	r2, #560	; 0x230
    1f4a:	f2c6 0221 	movt	r2, #24609	; 0x6021
    1f4e:	4293      	cmp	r3, r2
    1f50:	f000 8163 	beq.w	221a <TEE_AllocateOperation+0x692>
    1f54:	e1bb      	b.n	22ce <TEE_AllocateOperation+0x746>
    1f56:	f241 0241 	movw	r2, #4161	; 0x1041
    1f5a:	f2c7 0200 	movt	r2, #28672	; 0x7000
    1f5e:	4293      	cmp	r3, r2
    1f60:	f000 8144 	beq.w	21ec <TEE_AllocateOperation+0x664>
    1f64:	f241 0241 	movw	r2, #4161	; 0x1041
    1f68:	f2c7 0200 	movt	r2, #28672	; 0x7000
    1f6c:	4293      	cmp	r3, r2
    1f6e:	d807      	bhi.n	1f80 <TEE_AllocateOperation+0x3f8>
    1f70:	f44f 720c 	mov.w	r2, #560	; 0x230
    1f74:	f2c6 0261 	movt	r2, #24673	; 0x6061
    1f78:	4293      	cmp	r3, r2
    1f7a:	f000 814e 	beq.w	221a <TEE_AllocateOperation+0x692>
    1f7e:	e1a6      	b.n	22ce <TEE_AllocateOperation+0x746>
    1f80:	f641 0230 	movw	r2, #6192	; 0x1830
    1f84:	f2c7 0200 	movt	r2, #28672	; 0x7000
    1f88:	4293      	cmp	r3, r2
    1f8a:	f000 812f 	beq.w	21ec <TEE_AllocateOperation+0x664>
    1f8e:	f242 0241 	movw	r2, #8257	; 0x2041
    1f92:	f2c7 0200 	movt	r2, #28672	; 0x7000
    1f96:	4293      	cmp	r3, r2
    1f98:	f000 8128 	beq.w	21ec <TEE_AllocateOperation+0x664>
    1f9c:	e197      	b.n	22ce <TEE_AllocateOperation+0x746>
    1f9e:	f04f 0232 	mov.w	r2, #50	; 0x32
    1fa2:	f2c8 0200 	movt	r2, #32768	; 0x8000
    1fa6:	4293      	cmp	r3, r2
    1fa8:	f000 8165 	beq.w	2276 <TEE_AllocateOperation+0x6ee>
    1fac:	f04f 0232 	mov.w	r2, #50	; 0x32
    1fb0:	f2c8 0200 	movt	r2, #32768	; 0x8000
    1fb4:	4293      	cmp	r3, r2
    1fb6:	d87e      	bhi.n	20b6 <TEE_AllocateOperation+0x52e>
    1fb8:	f245 0241 	movw	r2, #20545	; 0x5041
    1fbc:	f2c7 0200 	movt	r2, #28672	; 0x7000
    1fc0:	4293      	cmp	r3, r2
    1fc2:	f000 8113 	beq.w	21ec <TEE_AllocateOperation+0x664>
    1fc6:	f245 0241 	movw	r2, #20545	; 0x5041
    1fca:	f2c7 0200 	movt	r2, #28672	; 0x7000
    1fce:	4293      	cmp	r3, r2
    1fd0:	d838      	bhi.n	2044 <TEE_AllocateOperation+0x4bc>
    1fd2:	f643 0230 	movw	r2, #14384	; 0x3830
    1fd6:	f2c7 0200 	movt	r2, #28672	; 0x7000
    1fda:	4293      	cmp	r3, r2
    1fdc:	f000 8106 	beq.w	21ec <TEE_AllocateOperation+0x664>
    1fe0:	f643 0230 	movw	r2, #14384	; 0x3830
    1fe4:	f2c7 0200 	movt	r2, #28672	; 0x7000
    1fe8:	4293      	cmp	r3, r2
    1fea:	d815      	bhi.n	2018 <TEE_AllocateOperation+0x490>
    1fec:	f243 0241 	movw	r2, #12353	; 0x3041
    1ff0:	f2c7 0200 	movt	r2, #28672	; 0x7000
    1ff4:	4293      	cmp	r3, r2
    1ff6:	f000 80f9 	beq.w	21ec <TEE_AllocateOperation+0x664>
    1ffa:	f243 1231 	movw	r2, #12593	; 0x3131
    1ffe:	f2c7 0200 	movt	r2, #28672	; 0x7000
    2002:	4293      	cmp	r3, r2
    2004:	f000 80f2 	beq.w	21ec <TEE_AllocateOperation+0x664>
    2008:	f642 0230 	movw	r2, #10288	; 0x2830
    200c:	f2c7 0200 	movt	r2, #28672	; 0x7000
    2010:	4293      	cmp	r3, r2
    2012:	f000 80eb 	beq.w	21ec <TEE_AllocateOperation+0x664>
    2016:	e15a      	b.n	22ce <TEE_AllocateOperation+0x746>
    2018:	f244 1231 	movw	r2, #16689	; 0x4131
    201c:	f2c7 0200 	movt	r2, #28672	; 0x7000
    2020:	4293      	cmp	r3, r2
    2022:	f000 80e3 	beq.w	21ec <TEE_AllocateOperation+0x664>
    2026:	f644 0230 	movw	r2, #18480	; 0x4830
    202a:	f2c7 0200 	movt	r2, #28672	; 0x7000
    202e:	4293      	cmp	r3, r2
    2030:	f000 80dc 	beq.w	21ec <TEE_AllocateOperation+0x664>
    2034:	f244 0241 	movw	r2, #16449	; 0x4041
    2038:	f2c7 0200 	movt	r2, #28672	; 0x7000
    203c:	4293      	cmp	r3, r2
    203e:	f000 80d5 	beq.w	21ec <TEE_AllocateOperation+0x664>
    2042:	e144      	b.n	22ce <TEE_AllocateOperation+0x746>
    2044:	f643 1230 	movw	r2, #14640	; 0x3930
    2048:	f2c7 0231 	movt	r2, #28721	; 0x7031
    204c:	4293      	cmp	r3, r2
    204e:	f000 80cd 	beq.w	21ec <TEE_AllocateOperation+0x664>
    2052:	f643 1230 	movw	r2, #14640	; 0x3930
    2056:	f2c7 0231 	movt	r2, #28721	; 0x7031
    205a:	4293      	cmp	r3, r2
    205c:	d815      	bhi.n	208a <TEE_AllocateOperation+0x502>
    205e:	f646 0230 	movw	r2, #26672	; 0x6830
    2062:	f2c7 0200 	movt	r2, #28672	; 0x7000
    2066:	4293      	cmp	r3, r2
    2068:	f000 80c0 	beq.w	21ec <TEE_AllocateOperation+0x664>
    206c:	f642 1230 	movw	r2, #10544	; 0x2930
    2070:	f2c7 0221 	movt	r2, #28705	; 0x7021
    2074:	4293      	cmp	r3, r2
    2076:	f000 80b9 	beq.w	21ec <TEE_AllocateOperation+0x664>
    207a:	f645 0230 	movw	r2, #22576	; 0x5830
    207e:	f2c7 0200 	movt	r2, #28672	; 0x7000
    2082:	4293      	cmp	r3, r2
    2084:	f000 80b2 	beq.w	21ec <TEE_AllocateOperation+0x664>
    2088:	e121      	b.n	22ce <TEE_AllocateOperation+0x746>
    208a:	f645 1230 	movw	r2, #22832	; 0x5930
    208e:	f2c7 0251 	movt	r2, #28753	; 0x7051
    2092:	4293      	cmp	r3, r2
    2094:	f000 80aa 	beq.w	21ec <TEE_AllocateOperation+0x664>
    2098:	f646 1230 	movw	r2, #26928	; 0x6930
    209c:	f2c7 0261 	movt	r2, #28769	; 0x7061
    20a0:	4293      	cmp	r3, r2
    20a2:	f000 80a3 	beq.w	21ec <TEE_AllocateOperation+0x664>
    20a6:	f644 1230 	movw	r2, #18736	; 0x4930
    20aa:	f2c7 0241 	movt	r2, #28737	; 0x7041
    20ae:	4293      	cmp	r3, r2
    20b0:	f000 809c 	beq.w	21ec <TEE_AllocateOperation+0x664>
    20b4:	e10b      	b.n	22ce <TEE_AllocateOperation+0x746>
    20b6:	f243 02c1 	movw	r2, #12481	; 0x30c1
    20ba:	f2c8 0200 	movt	r2, #32768	; 0x8000
    20be:	4293      	cmp	r3, r2
    20c0:	d838      	bhi.n	2134 <TEE_AllocateOperation+0x5ac>
    20c2:	f44f 5243 	mov.w	r2, #12480	; 0x30c0
    20c6:	f2c8 0200 	movt	r2, #32768	; 0x8000
    20ca:	4293      	cmp	r3, r2
    20cc:	f080 80d3 	bcs.w	2276 <TEE_AllocateOperation+0x6ee>
    20d0:	f242 0242 	movw	r2, #8258	; 0x2042
    20d4:	f2c8 0200 	movt	r2, #32768	; 0x8000
    20d8:	4293      	cmp	r3, r2
    20da:	f000 80cc 	beq.w	2276 <TEE_AllocateOperation+0x6ee>
    20de:	f242 0242 	movw	r2, #8258	; 0x2042
    20e2:	f2c8 0200 	movt	r2, #32768	; 0x8000
    20e6:	4293      	cmp	r3, r2
    20e8:	d80e      	bhi.n	2108 <TEE_AllocateOperation+0x580>
    20ea:	f241 0242 	movw	r2, #4162	; 0x1042
    20ee:	f2c8 0200 	movt	r2, #32768	; 0x8000
    20f2:	4293      	cmp	r3, r2
    20f4:	f000 80bf 	beq.w	2276 <TEE_AllocateOperation+0x6ee>
    20f8:	f44f 5286 	mov.w	r2, #4288	; 0x10c0
    20fc:	f2c8 0200 	movt	r2, #32768	; 0x8000
    2100:	4293      	cmp	r3, r2
    2102:	f000 80b8 	beq.w	2276 <TEE_AllocateOperation+0x6ee>
    2106:	e0e2      	b.n	22ce <TEE_AllocateOperation+0x746>
    2108:	f44f 5203 	mov.w	r2, #8384	; 0x20c0
    210c:	f2c8 0200 	movt	r2, #32768	; 0x8000
    2110:	4293      	cmp	r3, r2
    2112:	f0c0 80dc 	bcc.w	22ce <TEE_AllocateOperation+0x746>
    2116:	f242 02c2 	movw	r2, #8386	; 0x20c2
    211a:	f2c8 0200 	movt	r2, #32768	; 0x8000
    211e:	4293      	cmp	r3, r2
    2120:	f240 80a9 	bls.w	2276 <TEE_AllocateOperation+0x6ee>
    2124:	f243 0242 	movw	r2, #12354	; 0x3042
    2128:	f2c8 0200 	movt	r2, #32768	; 0x8000
    212c:	4293      	cmp	r3, r2
    212e:	f000 80a2 	beq.w	2276 <TEE_AllocateOperation+0x6ee>
    2132:	e0cc      	b.n	22ce <TEE_AllocateOperation+0x746>
    2134:	f245 0242 	movw	r2, #20546	; 0x5042
    2138:	f2c8 0200 	movt	r2, #32768	; 0x8000
    213c:	4293      	cmp	r3, r2
    213e:	f000 809a 	beq.w	2276 <TEE_AllocateOperation+0x6ee>
    2142:	f245 0242 	movw	r2, #20546	; 0x5042
    2146:	f2c8 0200 	movt	r2, #32768	; 0x8000
    214a:	4293      	cmp	r3, r2
    214c:	d816      	bhi.n	217c <TEE_AllocateOperation+0x5f4>
    214e:	f244 0242 	movw	r2, #16450	; 0x4042
    2152:	f2c8 0200 	movt	r2, #32768	; 0x8000
    2156:	4293      	cmp	r3, r2
    2158:	f000 808d 	beq.w	2276 <TEE_AllocateOperation+0x6ee>
    215c:	f244 0242 	movw	r2, #16450	; 0x4042
    2160:	f2c8 0200 	movt	r2, #32768	; 0x8000
    2164:	4293      	cmp	r3, r2
    2166:	f0c0 80b2 	bcc.w	22ce <TEE_AllocateOperation+0x746>
    216a:	f64b 7240 	movw	r2, #48960	; 0xbf40
    216e:	f6c7 72ff 	movt	r2, #32767	; 0x7fff
    2172:	441a      	add	r2, r3
    2174:	2a01      	cmp	r2, #1
    2176:	f200 80aa 	bhi.w	22ce <TEE_AllocateOperation+0x746>
    217a:	e07c      	b.n	2276 <TEE_AllocateOperation+0x6ee>
    217c:	f245 02c0 	movw	r2, #20672	; 0x50c0
    2180:	f2c8 0200 	movt	r2, #32768	; 0x8000
    2184:	4293      	cmp	r3, r2
    2186:	f0c0 80a2 	bcc.w	22ce <TEE_AllocateOperation+0x746>
    218a:	f245 02c1 	movw	r2, #20673	; 0x50c1
    218e:	f2c8 0200 	movt	r2, #32768	; 0x8000
    2192:	4293      	cmp	r3, r2
    2194:	d96f      	bls.n	2276 <TEE_AllocateOperation+0x6ee>
    2196:	f649 7240 	movw	r2, #40768	; 0x9f40
    219a:	f6c7 72ff 	movt	r2, #32767	; 0x7fff
    219e:	441a      	add	r2, r3
    21a0:	2a01      	cmp	r2, #1
    21a2:	f200 8094 	bhi.w	22ce <TEE_AllocateOperation+0x746>
    21a6:	e066      	b.n	2276 <TEE_AllocateOperation+0x6ee>
/home/hrl/optee/optee_os/lib/libutee/tee_api_operations.c:133
    21a8:	f04f 0301 	mov.w	r3, #1
    21ac:	f887 3026 	strb.w	r3, [r7, #38]	; 0x26
/home/hrl/optee/optee_os/lib/libutee/tee_api_operations.c:142
    21b0:	68bb      	ldr	r3, [r7, #8]
    21b2:	b2db      	uxtb	r3, r3
    21b4:	2b10      	cmp	r3, #16
    21b6:	d103      	bne.n	21c0 <TEE_AllocateOperation+0x638>
/home/hrl/optee/optee_os/lib/libutee/tee_api_operations.c:143
    21b8:	f04f 0310 	mov.w	r3, #16
    21bc:	62fb      	str	r3, [r7, #44]	; 0x2c
    21be:	e002      	b.n	21c6 <TEE_AllocateOperation+0x63e>
/home/hrl/optee/optee_os/lib/libutee/tee_api_operations.c:145
    21c0:	f04f 0308 	mov.w	r3, #8
    21c4:	62fb      	str	r3, [r7, #44]	; 0x2c
/home/hrl/optee/optee_os/lib/libutee/tee_api_operations.c:149
    21c6:	687b      	ldr	r3, [r7, #4]
    21c8:	2b00      	cmp	r3, #0
    21ca:	d103      	bne.n	21d4 <TEE_AllocateOperation+0x64c>
/home/hrl/optee/optee_os/lib/libutee/tee_api_operations.c:150
    21cc:	f04f 0302 	mov.w	r3, #2
    21d0:	62bb      	str	r3, [r7, #40]	; 0x28
/home/hrl/optee/optee_os/lib/libutee/tee_api_operations.c:155
    21d2:	e081      	b.n	22d8 <TEE_AllocateOperation+0x750>
/home/hrl/optee/optee_os/lib/libutee/tee_api_operations.c:151
    21d4:	687b      	ldr	r3, [r7, #4]
    21d6:	2b01      	cmp	r3, #1
    21d8:	d103      	bne.n	21e2 <TEE_AllocateOperation+0x65a>
/home/hrl/optee/optee_os/lib/libutee/tee_api_operations.c:152
    21da:	f04f 0304 	mov.w	r3, #4
    21de:	62bb      	str	r3, [r7, #40]	; 0x28
/home/hrl/optee/optee_os/lib/libutee/tee_api_operations.c:155
    21e0:	e07a      	b.n	22d8 <TEE_AllocateOperation+0x750>
/home/hrl/optee/optee_os/lib/libutee/tee_api_operations.c:154
    21e2:	f04f 030a 	mov.w	r3, #10
    21e6:	f6cf 73ff 	movt	r3, #65535	; 0xffff
    21ea:	e168      	b.n	24be <TEE_AllocateOperation+0x936>
/home/hrl/optee/optee_os/lib/libutee/tee_api_operations.c:176
    21ec:	687b      	ldr	r3, [r7, #4]
    21ee:	2b02      	cmp	r3, #2
    21f0:	d107      	bne.n	2202 <TEE_AllocateOperation+0x67a>
/home/hrl/optee/optee_os/lib/libutee/tee_api_operations.c:177
    21f2:	f04f 0301 	mov.w	r3, #1
    21f6:	f887 3027 	strb.w	r3, [r7, #39]	; 0x27
/home/hrl/optee/optee_os/lib/libutee/tee_api_operations.c:178
    21fa:	f04f 0310 	mov.w	r3, #16
    21fe:	62bb      	str	r3, [r7, #40]	; 0x28
/home/hrl/optee/optee_os/lib/libutee/tee_api_operations.c:184
    2200:	e06a      	b.n	22d8 <TEE_AllocateOperation+0x750>
/home/hrl/optee/optee_os/lib/libutee/tee_api_operations.c:179
    2202:	687b      	ldr	r3, [r7, #4]
    2204:	2b03      	cmp	r3, #3
    2206:	d103      	bne.n	2210 <TEE_AllocateOperation+0x688>
/home/hrl/optee/optee_os/lib/libutee/tee_api_operations.c:180
    2208:	f04f 0320 	mov.w	r3, #32
    220c:	62bb      	str	r3, [r7, #40]	; 0x28
/home/hrl/optee/optee_os/lib/libutee/tee_api_operations.c:184
    220e:	e063      	b.n	22d8 <TEE_AllocateOperation+0x750>
/home/hrl/optee/optee_os/lib/libutee/tee_api_operations.c:182
    2210:	f04f 030a 	mov.w	r3, #10
    2214:	f6cf 73ff 	movt	r3, #65535	; 0xffff
    2218:	e151      	b.n	24be <TEE_AllocateOperation+0x936>
/home/hrl/optee/optee_os/lib/libutee/tee_api_operations.c:192
    221a:	687b      	ldr	r3, [r7, #4]
    221c:	2b00      	cmp	r3, #0
    221e:	d103      	bne.n	2228 <TEE_AllocateOperation+0x6a0>
/home/hrl/optee/optee_os/lib/libutee/tee_api_operations.c:193
    2220:	f04f 0302 	mov.w	r3, #2
    2224:	62bb      	str	r3, [r7, #40]	; 0x28
/home/hrl/optee/optee_os/lib/libutee/tee_api_operations.c:200
    2226:	e057      	b.n	22d8 <TEE_AllocateOperation+0x750>
/home/hrl/optee/optee_os/lib/libutee/tee_api_operations.c:194
    2228:	687b      	ldr	r3, [r7, #4]
    222a:	2b01      	cmp	r3, #1
    222c:	d107      	bne.n	223e <TEE_AllocateOperation+0x6b6>
/home/hrl/optee/optee_os/lib/libutee/tee_api_operations.c:195
    222e:	f04f 0301 	mov.w	r3, #1
    2232:	f887 3027 	strb.w	r3, [r7, #39]	; 0x27
/home/hrl/optee/optee_os/lib/libutee/tee_api_operations.c:196
    2236:	f04f 0304 	mov.w	r3, #4
    223a:	62bb      	str	r3, [r7, #40]	; 0x28
/home/hrl/optee/optee_os/lib/libutee/tee_api_operations.c:200
    223c:	e04c      	b.n	22d8 <TEE_AllocateOperation+0x750>
/home/hrl/optee/optee_os/lib/libutee/tee_api_operations.c:198
    223e:	f04f 030a 	mov.w	r3, #10
    2242:	f6cf 73ff 	movt	r3, #65535	; 0xffff
    2246:	e13a      	b.n	24be <TEE_AllocateOperation+0x936>
/home/hrl/optee/optee_os/lib/libutee/tee_api_operations.c:203
    2248:	687b      	ldr	r3, [r7, #4]
    224a:	2b00      	cmp	r3, #0
    224c:	d103      	bne.n	2256 <TEE_AllocateOperation+0x6ce>
/home/hrl/optee/optee_os/lib/libutee/tee_api_operations.c:204
    224e:	f04f 0322 	mov.w	r3, #34	; 0x22
    2252:	62bb      	str	r3, [r7, #40]	; 0x28
/home/hrl/optee/optee_os/lib/libutee/tee_api_operations.c:211
    2254:	e040      	b.n	22d8 <TEE_AllocateOperation+0x750>
/home/hrl/optee/optee_os/lib/libutee/tee_api_operations.c:205
    2256:	687b      	ldr	r3, [r7, #4]
    2258:	2b01      	cmp	r3, #1
    225a:	d107      	bne.n	226c <TEE_AllocateOperation+0x6e4>
/home/hrl/optee/optee_os/lib/libutee/tee_api_operations.c:206
    225c:	f04f 0301 	mov.w	r3, #1
    2260:	f887 3027 	strb.w	r3, [r7, #39]	; 0x27
/home/hrl/optee/optee_os/lib/libutee/tee_api_operations.c:207
    2264:	f04f 0314 	mov.w	r3, #20
    2268:	62bb      	str	r3, [r7, #40]	; 0x28
/home/hrl/optee/optee_os/lib/libutee/tee_api_operations.c:211
    226a:	e035      	b.n	22d8 <TEE_AllocateOperation+0x750>
/home/hrl/optee/optee_os/lib/libutee/tee_api_operations.c:209
    226c:	f04f 030a 	mov.w	r3, #10
    2270:	f6cf 73ff 	movt	r3, #65535	; 0xffff
    2274:	e123      	b.n	24be <TEE_AllocateOperation+0x936>
/home/hrl/optee/optee_os/lib/libutee/tee_api_operations.c:231
    2276:	687b      	ldr	r3, [r7, #4]
    2278:	2b06      	cmp	r3, #6
    227a:	d004      	beq.n	2286 <TEE_AllocateOperation+0x6fe>
/home/hrl/optee/optee_os/lib/libutee/tee_api_operations.c:232
    227c:	f04f 030a 	mov.w	r3, #10
    2280:	f6cf 73ff 	movt	r3, #65535	; 0xffff
    2284:	e11b      	b.n	24be <TEE_AllocateOperation+0x936>
/home/hrl/optee/optee_os/lib/libutee/tee_api_operations.c:233
    2286:	f04f 0301 	mov.w	r3, #1
    228a:	f887 3027 	strb.w	r3, [r7, #39]	; 0x27
/home/hrl/optee/optee_os/lib/libutee/tee_api_operations.c:234
    228e:	f04f 0340 	mov.w	r3, #64	; 0x40
    2292:	62bb      	str	r3, [r7, #40]	; 0x28
/home/hrl/optee/optee_os/lib/libutee/tee_api_operations.c:235
    2294:	e020      	b.n	22d8 <TEE_AllocateOperation+0x750>
/home/hrl/optee/optee_os/lib/libutee/tee_api_operations.c:243
    2296:	687b      	ldr	r3, [r7, #4]
    2298:	2b05      	cmp	r3, #5
    229a:	d004      	beq.n	22a6 <TEE_AllocateOperation+0x71e>
/home/hrl/optee/optee_os/lib/libutee/tee_api_operations.c:244
    229c:	f04f 030a 	mov.w	r3, #10
    22a0:	f6cf 73ff 	movt	r3, #65535	; 0xffff
    22a4:	e10b      	b.n	24be <TEE_AllocateOperation+0x936>
/home/hrl/optee/optee_os/lib/libutee/tee_api_operations.c:246
    22a6:	6b3b      	ldr	r3, [r7, #48]	; 0x30
    22a8:	f443 2380 	orr.w	r3, r3, #262144	; 0x40000
    22ac:	633b      	str	r3, [r7, #48]	; 0x30
/home/hrl/optee/optee_os/lib/libutee/tee_api_operations.c:247
    22ae:	f04f 0300 	mov.w	r3, #0
    22b2:	62bb      	str	r3, [r7, #40]	; 0x28
/home/hrl/optee/optee_os/lib/libutee/tee_api_operations.c:248
    22b4:	e010      	b.n	22d8 <TEE_AllocateOperation+0x750>
/home/hrl/optee/optee_os/lib/libutee/tee_api_operations.c:263
    22b6:	687b      	ldr	r3, [r7, #4]
    22b8:	2b04      	cmp	r3, #4
    22ba:	d004      	beq.n	22c6 <TEE_AllocateOperation+0x73e>
/home/hrl/optee/optee_os/lib/libutee/tee_api_operations.c:264
    22bc:	f04f 030a 	mov.w	r3, #10
    22c0:	f6cf 73ff 	movt	r3, #65535	; 0xffff
    22c4:	e0fb      	b.n	24be <TEE_AllocateOperation+0x936>
/home/hrl/optee/optee_os/lib/libutee/tee_api_operations.c:265
    22c6:	f04f 0308 	mov.w	r3, #8
    22ca:	62bb      	str	r3, [r7, #40]	; 0x28
/home/hrl/optee/optee_os/lib/libutee/tee_api_operations.c:266
    22cc:	e004      	b.n	22d8 <TEE_AllocateOperation+0x750>
/home/hrl/optee/optee_os/lib/libutee/tee_api_operations.c:269
    22ce:	f04f 030a 	mov.w	r3, #10
    22d2:	f6cf 73ff 	movt	r3, #65535	; 0xffff
    22d6:	e0f2      	b.n	24be <TEE_AllocateOperation+0x936>
/home/hrl/optee/optee_os/lib/libutee/tee_api_operations.c:272
    22d8:	f04f 0100 	mov.w	r1, #0
    22dc:	f04f 0044 	mov.w	r0, #68	; 0x44
    22e0:	f7ff fbee 	bl	1ac0 <TEE_Malloc>
    22e4:	61b8      	str	r0, [r7, #24]
/home/hrl/optee/optee_os/lib/libutee/tee_api_operations.c:273
    22e6:	69bb      	ldr	r3, [r7, #24]
    22e8:	2b00      	cmp	r3, #0
    22ea:	d104      	bne.n	22f6 <TEE_AllocateOperation+0x76e>
/home/hrl/optee/optee_os/lib/libutee/tee_api_operations.c:274
    22ec:	f04f 030c 	mov.w	r3, #12
    22f0:	f6cf 73ff 	movt	r3, #65535	; 0xffff
    22f4:	e0e3      	b.n	24be <TEE_AllocateOperation+0x936>
/home/hrl/optee/optee_os/lib/libutee/tee_api_operations.c:276
    22f6:	69bb      	ldr	r3, [r7, #24]
    22f8:	68ba      	ldr	r2, [r7, #8]
    22fa:	601a      	str	r2, [r3, #0]
/home/hrl/optee/optee_os/lib/libutee/tee_api_operations.c:277
    22fc:	68bb      	ldr	r3, [r7, #8]
    22fe:	ea4f 7213 	mov.w	r2, r3, lsr #28
    2302:	69bb      	ldr	r3, [r7, #24]
    2304:	605a      	str	r2, [r3, #4]
/home/hrl/optee/optee_os/lib/libutee/tee_api_operations.c:278
    2306:	69bb      	ldr	r3, [r7, #24]
    2308:	687a      	ldr	r2, [r7, #4]
    230a:	609a      	str	r2, [r3, #8]
/home/hrl/optee/optee_os/lib/libutee/tee_api_operations.c:279
    230c:	69bb      	ldr	r3, [r7, #24]
    230e:	683a      	ldr	r2, [r7, #0]
    2310:	611a      	str	r2, [r3, #16]
/home/hrl/optee/optee_os/lib/libutee/tee_api_operations.c:280
    2312:	69bb      	ldr	r3, [r7, #24]
    2314:	6aba      	ldr	r2, [r7, #40]	; 0x28
    2316:	619a      	str	r2, [r3, #24]
/home/hrl/optee/optee_os/lib/libutee/tee_api_operations.c:281
    2318:	69bb      	ldr	r3, [r7, #24]
    231a:	6b3a      	ldr	r2, [r7, #48]	; 0x30
    231c:	61da      	str	r2, [r3, #28]
/home/hrl/optee/optee_os/lib/libutee/tee_api_operations.c:283
    231e:	6afb      	ldr	r3, [r7, #44]	; 0x2c
    2320:	2b01      	cmp	r3, #1
    2322:	d91b      	bls.n	235c <TEE_AllocateOperation+0x7d4>
/home/hrl/optee/optee_os/lib/libutee/tee_api_operations.c:284
    2324:	6afb      	ldr	r3, [r7, #44]	; 0x2c
    2326:	623b      	str	r3, [r7, #32]
/home/hrl/optee/optee_os/lib/libutee/tee_api_operations.c:286
    2328:	f897 3026 	ldrb.w	r3, [r7, #38]	; 0x26
    232c:	2b00      	cmp	r3, #0
    232e:	d003      	beq.n	2338 <TEE_AllocateOperation+0x7b0>
/home/hrl/optee/optee_os/lib/libutee/tee_api_operations.c:287
    2330:	6a3b      	ldr	r3, [r7, #32]
    2332:	ea4f 0343 	mov.w	r3, r3, lsl #1
    2336:	623b      	str	r3, [r7, #32]
/home/hrl/optee/optee_os/lib/libutee/tee_api_operations.c:289
    2338:	f04f 4100 	mov.w	r1, #2147483648	; 0x80000000
    233c:	6a38      	ldr	r0, [r7, #32]
    233e:	f7ff fbbf 	bl	1ac0 <TEE_Malloc>
    2342:	4602      	mov	r2, r0
    2344:	69bb      	ldr	r3, [r7, #24]
    2346:	62da      	str	r2, [r3, #44]	; 0x2c
/home/hrl/optee/optee_os/lib/libutee/tee_api_operations.c:291
    2348:	69bb      	ldr	r3, [r7, #24]
    234a:	6adb      	ldr	r3, [r3, #44]	; 0x2c
    234c:	2b00      	cmp	r3, #0
    234e:	d105      	bne.n	235c <TEE_AllocateOperation+0x7d4>
/home/hrl/optee/optee_os/lib/libutee/tee_api_operations.c:292
    2350:	f04f 030c 	mov.w	r3, #12
    2354:	f6cf 73ff 	movt	r3, #65535	; 0xffff
    2358:	637b      	str	r3, [r7, #52]	; 0x34
/home/hrl/optee/optee_os/lib/libutee/tee_api_operations.c:293
    235a:	e07e      	b.n	245a <TEE_AllocateOperation+0x8d2>
/home/hrl/optee/optee_os/lib/libutee/tee_api_operations.c:296
    235c:	69bb      	ldr	r3, [r7, #24]
    235e:	6afa      	ldr	r2, [r7, #44]	; 0x2c
    2360:	635a      	str	r2, [r3, #52]	; 0x34
/home/hrl/optee/optee_os/lib/libutee/tee_api_operations.c:297
    2362:	69bb      	ldr	r3, [r7, #24]
    2364:	f897 2026 	ldrb.w	r2, [r7, #38]	; 0x26
    2368:	f883 2030 	strb.w	r2, [r3, #48]	; 0x30
/home/hrl/optee/optee_os/lib/libutee/tee_api_operations.c:299
    236c:	68bb      	ldr	r3, [r7, #8]
    236e:	ea4f 7313 	mov.w	r3, r3, lsr #28
    2372:	2b05      	cmp	r3, #5
    2374:	d037      	beq.n	23e6 <TEE_AllocateOperation+0x85e>
/home/hrl/optee/optee_os/lib/libutee/tee_api_operations.c:300
    2376:	683b      	ldr	r3, [r7, #0]
    2378:	61fb      	str	r3, [r7, #28]
/home/hrl/optee/optee_os/lib/libutee/tee_api_operations.c:301
    237a:	68bb      	ldr	r3, [r7, #8]
    237c:	b2da      	uxtb	r2, r3
    237e:	f897 3027 	ldrb.w	r3, [r7, #39]	; 0x27
    2382:	2b00      	cmp	r3, #0
    2384:	d002      	beq.n	238c <TEE_AllocateOperation+0x804>
/home/hrl/optee/optee_os/lib/libutee/tee_api_operations.c:301 (discriminator 1)
    2386:	f04f 4321 	mov.w	r3, #2701131776	; 0xa1000000
    238a:	e001      	b.n	2390 <TEE_AllocateOperation+0x808>
/home/hrl/optee/optee_os/lib/libutee/tee_api_operations.c:301 (discriminator 2)
    238c:	f04f 4320 	mov.w	r3, #2684354560	; 0xa0000000
/home/hrl/optee/optee_os/lib/libutee/tee_api_operations.c:301 (discriminator 4)
    2390:	ea43 0302 	orr.w	r3, r3, r2
    2394:	617b      	str	r3, [r7, #20]
/home/hrl/optee/optee_os/lib/libutee/tee_api_operations.c:308 (discriminator 4)
    2396:	69bb      	ldr	r3, [r7, #24]
    2398:	69db      	ldr	r3, [r3, #28]
    239a:	f403 2300 	and.w	r3, r3, #524288	; 0x80000
    239e:	2b00      	cmp	r3, #0
    23a0:	d003      	beq.n	23aa <TEE_AllocateOperation+0x822>
/home/hrl/optee/optee_os/lib/libutee/tee_api_operations.c:309
    23a2:	69fb      	ldr	r3, [r7, #28]
    23a4:	ea4f 0353 	mov.w	r3, r3, lsr #1
    23a8:	61fb      	str	r3, [r7, #28]
/home/hrl/optee/optee_os/lib/libutee/tee_api_operations.c:311
    23aa:	69bb      	ldr	r3, [r7, #24]
    23ac:	f103 0320 	add.w	r3, r3, #32
    23b0:	461a      	mov	r2, r3
    23b2:	69f9      	ldr	r1, [r7, #28]
    23b4:	6978      	ldr	r0, [r7, #20]
    23b6:	f008 fcd0 	bl	ad5a <TEE_AllocateTransientObject>
    23ba:	6378      	str	r0, [r7, #52]	; 0x34
/home/hrl/optee/optee_os/lib/libutee/tee_api_operations.c:312
    23bc:	6b7b      	ldr	r3, [r7, #52]	; 0x34
    23be:	2b00      	cmp	r3, #0
    23c0:	d144      	bne.n	244c <TEE_AllocateOperation+0x8c4>
/home/hrl/optee/optee_os/lib/libutee/tee_api_operations.c:315
    23c2:	69bb      	ldr	r3, [r7, #24]
    23c4:	69db      	ldr	r3, [r3, #28]
    23c6:	f403 2300 	and.w	r3, r3, #524288	; 0x80000
    23ca:	2b00      	cmp	r3, #0
    23cc:	d00b      	beq.n	23e6 <TEE_AllocateOperation+0x85e>
/home/hrl/optee/optee_os/lib/libutee/tee_api_operations.c:316
    23ce:	69bb      	ldr	r3, [r7, #24]
    23d0:	f103 0324 	add.w	r3, r3, #36	; 0x24
    23d4:	461a      	mov	r2, r3
    23d6:	69f9      	ldr	r1, [r7, #28]
    23d8:	6978      	ldr	r0, [r7, #20]
    23da:	f008 fcbe 	bl	ad5a <TEE_AllocateTransientObject>
    23de:	6378      	str	r0, [r7, #52]	; 0x34
/home/hrl/optee/optee_os/lib/libutee/tee_api_operations.c:318
    23e0:	6b7b      	ldr	r3, [r7, #52]	; 0x34
    23e2:	2b00      	cmp	r3, #0
    23e4:	d134      	bne.n	2450 <TEE_AllocateOperation+0x8c8>
/home/hrl/optee/optee_os/lib/libutee/tee_api_operations.c:323
    23e6:	69bb      	ldr	r3, [r7, #24]
    23e8:	6a1b      	ldr	r3, [r3, #32]
    23ea:	461a      	mov	r2, r3
/home/hrl/optee/optee_os/lib/libutee/tee_api_operations.c:324
    23ec:	69bb      	ldr	r3, [r7, #24]
    23ee:	6a5b      	ldr	r3, [r3, #36]	; 0x24
/home/hrl/optee/optee_os/lib/libutee/tee_api_operations.c:323
    23f0:	4619      	mov	r1, r3
    23f2:	69bb      	ldr	r3, [r7, #24]
    23f4:	f103 033c 	add.w	r3, r3, #60	; 0x3c
    23f8:	9300      	str	r3, [sp, #0]
    23fa:	460b      	mov	r3, r1
    23fc:	6879      	ldr	r1, [r7, #4]
    23fe:	68b8      	ldr	r0, [r7, #8]
    2400:	f002 ec08 	blx	4c14 <utee_cryp_state_alloc>
    2404:	6378      	str	r0, [r7, #52]	; 0x34
/home/hrl/optee/optee_os/lib/libutee/tee_api_operations.c:325
    2406:	6b7b      	ldr	r3, [r7, #52]	; 0x34
    2408:	2b00      	cmp	r3, #0
    240a:	d123      	bne.n	2454 <TEE_AllocateOperation+0x8cc>
/home/hrl/optee/optee_os/lib/libutee/tee_api_operations.c:333
    240c:	68bb      	ldr	r3, [r7, #8]
    240e:	ea4f 7313 	mov.w	r3, r3, lsr #28
    2412:	2b05      	cmp	r3, #5
    2414:	d112      	bne.n	243c <TEE_AllocateOperation+0x8b4>
/home/hrl/optee/optee_os/lib/libutee/tee_api_operations.c:334
    2416:	69bb      	ldr	r3, [r7, #24]
    2418:	6bdb      	ldr	r3, [r3, #60]	; 0x3c
    241a:	f04f 0200 	mov.w	r2, #0
    241e:	f04f 0100 	mov.w	r1, #0
    2422:	4618      	mov	r0, r3
    2424:	f002 ec16 	blx	4c54 <utee_hash_init>
    2428:	6378      	str	r0, [r7, #52]	; 0x34
/home/hrl/optee/optee_os/lib/libutee/tee_api_operations.c:335
    242a:	6b7b      	ldr	r3, [r7, #52]	; 0x34
    242c:	2b00      	cmp	r3, #0
    242e:	d113      	bne.n	2458 <TEE_AllocateOperation+0x8d0>
/home/hrl/optee/optee_os/lib/libutee/tee_api_operations.c:338
    2430:	69bb      	ldr	r3, [r7, #24]
    2432:	69db      	ldr	r3, [r3, #28]
    2434:	f443 3200 	orr.w	r2, r3, #131072	; 0x20000
    2438:	69bb      	ldr	r3, [r7, #24]
    243a:	61da      	str	r2, [r3, #28]
/home/hrl/optee/optee_os/lib/libutee/tee_api_operations.c:341
    243c:	69bb      	ldr	r3, [r7, #24]
    243e:	f04f 0200 	mov.w	r2, #0
    2442:	629a      	str	r2, [r3, #40]	; 0x28
/home/hrl/optee/optee_os/lib/libutee/tee_api_operations.c:343
    2444:	68fb      	ldr	r3, [r7, #12]
    2446:	69ba      	ldr	r2, [r7, #24]
    2448:	601a      	str	r2, [r3, #0]
    244a:	e006      	b.n	245a <TEE_AllocateOperation+0x8d2>
/home/hrl/optee/optee_os/lib/libutee/tee_api_operations.c:313
    244c:	bf00      	nop
    244e:	e004      	b.n	245a <TEE_AllocateOperation+0x8d2>
/home/hrl/optee/optee_os/lib/libutee/tee_api_operations.c:319
    2450:	bf00      	nop
    2452:	e002      	b.n	245a <TEE_AllocateOperation+0x8d2>
/home/hrl/optee/optee_os/lib/libutee/tee_api_operations.c:326
    2454:	bf00      	nop
    2456:	e000      	b.n	245a <TEE_AllocateOperation+0x8d2>
/home/hrl/optee/optee_os/lib/libutee/tee_api_operations.c:336
    2458:	bf00      	nop
/home/hrl/optee/optee_os/lib/libutee/tee_api_operations.c:346
    245a:	6b7b      	ldr	r3, [r7, #52]	; 0x34
    245c:	2b00      	cmp	r3, #0
    245e:	d02d      	beq.n	24bc <TEE_AllocateOperation+0x934>
/home/hrl/optee/optee_os/lib/libutee/tee_api_operations.c:347
    2460:	6b7a      	ldr	r2, [r7, #52]	; 0x34
    2462:	f04f 030c 	mov.w	r3, #12
    2466:	f6cf 73ff 	movt	r3, #65535	; 0xffff
    246a:	429a      	cmp	r2, r3
    246c:	d009      	beq.n	2482 <TEE_AllocateOperation+0x8fa>
/home/hrl/optee/optee_os/lib/libutee/tee_api_operations.c:347 (discriminator 1)
    246e:	6b7a      	ldr	r2, [r7, #52]	; 0x34
    2470:	f04f 030a 	mov.w	r3, #10
    2474:	f6cf 73ff 	movt	r3, #65535	; 0xffff
    2478:	429a      	cmp	r2, r3
    247a:	d002      	beq.n	2482 <TEE_AllocateOperation+0x8fa>
/home/hrl/optee/optee_os/lib/libutee/tee_api_operations.c:349
    247c:	6b78      	ldr	r0, [r7, #52]	; 0x34
    247e:	f009 fa5b 	bl	b938 <TEE_Panic>
/home/hrl/optee/optee_os/lib/libutee/tee_api_operations.c:350
    2482:	69bb      	ldr	r3, [r7, #24]
    2484:	2b00      	cmp	r3, #0
    2486:	d019      	beq.n	24bc <TEE_AllocateOperation+0x934>
/home/hrl/optee/optee_os/lib/libutee/tee_api_operations.c:351
    2488:	69bb      	ldr	r3, [r7, #24]
    248a:	6bdb      	ldr	r3, [r3, #60]	; 0x3c
    248c:	2b00      	cmp	r3, #0
    248e:	d003      	beq.n	2498 <TEE_AllocateOperation+0x910>
/home/hrl/optee/optee_os/lib/libutee/tee_api_operations.c:352
    2490:	69b8      	ldr	r0, [r7, #24]
    2492:	f000 f819 	bl	24c8 <TEE_FreeOperation>
    2496:	e011      	b.n	24bc <TEE_AllocateOperation+0x934>
/home/hrl/optee/optee_os/lib/libutee/tee_api_operations.c:354
    2498:	69bb      	ldr	r3, [r7, #24]
    249a:	6adb      	ldr	r3, [r3, #44]	; 0x2c
    249c:	4618      	mov	r0, r3
    249e:	f7ff fb2f 	bl	1b00 <TEE_Free>
/home/hrl/optee/optee_os/lib/libutee/tee_api_operations.c:355
    24a2:	69bb      	ldr	r3, [r7, #24]
    24a4:	6a1b      	ldr	r3, [r3, #32]
    24a6:	4618      	mov	r0, r3
    24a8:	f008 fc87 	bl	adba <TEE_FreeTransientObject>
/home/hrl/optee/optee_os/lib/libutee/tee_api_operations.c:356
    24ac:	69bb      	ldr	r3, [r7, #24]
    24ae:	6a5b      	ldr	r3, [r3, #36]	; 0x24
    24b0:	4618      	mov	r0, r3
    24b2:	f008 fc82 	bl	adba <TEE_FreeTransientObject>
/home/hrl/optee/optee_os/lib/libutee/tee_api_operations.c:357
    24b6:	69b8      	ldr	r0, [r7, #24]
    24b8:	f7ff fb22 	bl	1b00 <TEE_Free>
/home/hrl/optee/optee_os/lib/libutee/tee_api_operations.c:362
    24bc:	6b7b      	ldr	r3, [r7, #52]	; 0x34
/home/hrl/optee/optee_os/lib/libutee/tee_api_operations.c:363
    24be:	4618      	mov	r0, r3
    24c0:	f107 0738 	add.w	r7, r7, #56	; 0x38
    24c4:	46bd      	mov	sp, r7
    24c6:	bd80      	pop	{r7, pc}

000024c8 <TEE_FreeOperation>:
TEE_FreeOperation():
/home/hrl/optee/optee_os/lib/libutee/tee_api_operations.c:366
    24c8:	e96d 7e02 	strd	r7, lr, [sp, #-8]!
    24cc:	b084      	sub	sp, #16
    24ce:	af00      	add	r7, sp, #0
    24d0:	6078      	str	r0, [r7, #4]
/home/hrl/optee/optee_os/lib/libutee/tee_api_operations.c:369
    24d2:	687b      	ldr	r3, [r7, #4]
    24d4:	2b00      	cmp	r3, #0
    24d6:	d103      	bne.n	24e0 <TEE_FreeOperation+0x18>
/home/hrl/optee/optee_os/lib/libutee/tee_api_operations.c:370
    24d8:	f04f 0000 	mov.w	r0, #0
    24dc:	f009 fa2c 	bl	b938 <TEE_Panic>
/home/hrl/optee/optee_os/lib/libutee/tee_api_operations.c:377
    24e0:	687b      	ldr	r3, [r7, #4]
    24e2:	6bdb      	ldr	r3, [r3, #60]	; 0x3c
    24e4:	4618      	mov	r0, r3
    24e6:	f002 ebac 	blx	4c40 <utee_cryp_state_free>
    24ea:	60f8      	str	r0, [r7, #12]
/home/hrl/optee/optee_os/lib/libutee/tee_api_operations.c:378
    24ec:	68fb      	ldr	r3, [r7, #12]
    24ee:	2b00      	cmp	r3, #0
    24f0:	d002      	beq.n	24f8 <TEE_FreeOperation+0x30>
/home/hrl/optee/optee_os/lib/libutee/tee_api_operations.c:379
    24f2:	68f8      	ldr	r0, [r7, #12]
    24f4:	f009 fa20 	bl	b938 <TEE_Panic>
/home/hrl/optee/optee_os/lib/libutee/tee_api_operations.c:381
    24f8:	687b      	ldr	r3, [r7, #4]
    24fa:	6adb      	ldr	r3, [r3, #44]	; 0x2c
    24fc:	4618      	mov	r0, r3
    24fe:	f7ff faff 	bl	1b00 <TEE_Free>
/home/hrl/optee/optee_os/lib/libutee/tee_api_operations.c:382
    2502:	6878      	ldr	r0, [r7, #4]
    2504:	f7ff fafc 	bl	1b00 <TEE_Free>
/home/hrl/optee/optee_os/lib/libutee/tee_api_operations.c:383
    2508:	bf00      	nop
    250a:	f107 0710 	add.w	r7, r7, #16
    250e:	46bd      	mov	sp, r7
    2510:	bd80      	pop	{r7, pc}

00002512 <TEE_GetOperationInfo>:
TEE_GetOperationInfo():
/home/hrl/optee/optee_os/lib/libutee/tee_api_operations.c:387
    2512:	e96d 7e02 	strd	r7, lr, [sp, #-8]!
    2516:	b082      	sub	sp, #8
    2518:	af00      	add	r7, sp, #0
    251a:	6078      	str	r0, [r7, #4]
    251c:	6039      	str	r1, [r7, #0]
/home/hrl/optee/optee_os/lib/libutee/tee_api_operations.c:388
    251e:	687b      	ldr	r3, [r7, #4]
    2520:	2b00      	cmp	r3, #0
    2522:	d103      	bne.n	252c <TEE_GetOperationInfo+0x1a>
/home/hrl/optee/optee_os/lib/libutee/tee_api_operations.c:389
    2524:	f04f 0000 	mov.w	r0, #0
    2528:	f009 fa06 	bl	b938 <TEE_Panic>
/home/hrl/optee/optee_os/lib/libutee/tee_api_operations.c:391
    252c:	683b      	ldr	r3, [r7, #0]
    252e:	2b00      	cmp	r3, #0
    2530:	d103      	bne.n	253a <TEE_GetOperationInfo+0x28>
/home/hrl/optee/optee_os/lib/libutee/tee_api_operations.c:392
    2532:	f04f 0000 	mov.w	r0, #0
    2536:	f009 f9ff 	bl	b938 <TEE_Panic>
/home/hrl/optee/optee_os/lib/libutee/tee_api_operations.c:394
    253a:	683b      	ldr	r3, [r7, #0]
    253c:	687a      	ldr	r2, [r7, #4]
    253e:	e9d2 0100 	ldrd	r0, r1, [r2]
    2542:	e9c3 0100 	strd	r0, r1, [r3]
    2546:	e9d2 0102 	ldrd	r0, r1, [r2, #8]
    254a:	e9c3 0102 	strd	r0, r1, [r3, #8]
    254e:	e9d2 0104 	ldrd	r0, r1, [r2, #16]
    2552:	e9c3 0104 	strd	r0, r1, [r3, #16]
    2556:	e9d2 1206 	ldrd	r1, r2, [r2, #24]
    255a:	e9c3 1206 	strd	r1, r2, [r3, #24]
/home/hrl/optee/optee_os/lib/libutee/tee_api_operations.c:395
    255e:	bf00      	nop
    2560:	f107 0708 	add.w	r7, r7, #8
    2564:	46bd      	mov	sp, r7
    2566:	bd80      	pop	{r7, pc}

00002568 <TEE_GetOperationInfoMultiple>:
TEE_GetOperationInfoMultiple():
/home/hrl/optee/optee_os/lib/libutee/tee_api_operations.c:400
    2568:	e96d 7e02 	strd	r7, lr, [sp, #-8]!
    256c:	b096      	sub	sp, #88	; 0x58
    256e:	af00      	add	r7, sp, #0
    2570:	60f8      	str	r0, [r7, #12]
    2572:	60b9      	str	r1, [r7, #8]
    2574:	607a      	str	r2, [r7, #4]
/home/hrl/optee/optee_os/lib/libutee/tee_api_operations.c:401
    2576:	f04f 0300 	mov.w	r3, #0
    257a:	657b      	str	r3, [r7, #84]	; 0x54
/home/hrl/optee/optee_os/lib/libutee/tee_api_operations.c:407
    257c:	68fb      	ldr	r3, [r7, #12]
    257e:	2b00      	cmp	r3, #0
    2580:	d105      	bne.n	258e <TEE_GetOperationInfoMultiple+0x26>
/home/hrl/optee/optee_os/lib/libutee/tee_api_operations.c:408
    2582:	f04f 0306 	mov.w	r3, #6
    2586:	f6cf 73ff 	movt	r3, #65535	; 0xffff
    258a:	657b      	str	r3, [r7, #84]	; 0x54
/home/hrl/optee/optee_os/lib/libutee/tee_api_operations.c:409
    258c:	e0a9      	b.n	26e2 <TEE_GetOperationInfoMultiple+0x17a>
/home/hrl/optee/optee_os/lib/libutee/tee_api_operations.c:412
    258e:	68bb      	ldr	r3, [r7, #8]
    2590:	2b00      	cmp	r3, #0
    2592:	d105      	bne.n	25a0 <TEE_GetOperationInfoMultiple+0x38>
/home/hrl/optee/optee_os/lib/libutee/tee_api_operations.c:413
    2594:	f04f 0306 	mov.w	r3, #6
    2598:	f6cf 73ff 	movt	r3, #65535	; 0xffff
    259c:	657b      	str	r3, [r7, #84]	; 0x54
/home/hrl/optee/optee_os/lib/libutee/tee_api_operations.c:414
    259e:	e0a0      	b.n	26e2 <TEE_GetOperationInfoMultiple+0x17a>
/home/hrl/optee/optee_os/lib/libutee/tee_api_operations.c:417
    25a0:	687b      	ldr	r3, [r7, #4]
    25a2:	2b00      	cmp	r3, #0
    25a4:	d105      	bne.n	25b2 <TEE_GetOperationInfoMultiple+0x4a>
/home/hrl/optee/optee_os/lib/libutee/tee_api_operations.c:418
    25a6:	f04f 0306 	mov.w	r3, #6
    25aa:	f6cf 73ff 	movt	r3, #65535	; 0xffff
    25ae:	657b      	str	r3, [r7, #84]	; 0x54
/home/hrl/optee/optee_os/lib/libutee/tee_api_operations.c:419
    25b0:	e097      	b.n	26e2 <TEE_GetOperationInfoMultiple+0x17a>
/home/hrl/optee/optee_os/lib/libutee/tee_api_operations.c:422
    25b2:	687b      	ldr	r3, [r7, #4]
    25b4:	681b      	ldr	r3, [r3, #0]
    25b6:	f1a3 0320 	sub.w	r3, r3, #32
    25ba:	ea4f 03d3 	mov.w	r3, r3, lsr #3
    25be:	64fb      	str	r3, [r7, #76]	; 0x4c
/home/hrl/optee/optee_os/lib/libutee/tee_api_operations.c:425
    25c0:	6cfb      	ldr	r3, [r7, #76]	; 0x4c
    25c2:	2b02      	cmp	r3, #2
    25c4:	d905      	bls.n	25d2 <TEE_GetOperationInfoMultiple+0x6a>
/home/hrl/optee/optee_os/lib/libutee/tee_api_operations.c:426
    25c6:	f04f 0306 	mov.w	r3, #6
    25ca:	f6cf 73ff 	movt	r3, #65535	; 0xffff
    25ce:	657b      	str	r3, [r7, #84]	; 0x54
/home/hrl/optee/optee_os/lib/libutee/tee_api_operations.c:427
    25d0:	e087      	b.n	26e2 <TEE_GetOperationInfoMultiple+0x17a>
/home/hrl/optee/optee_os/lib/libutee/tee_api_operations.c:431
    25d2:	68fb      	ldr	r3, [r7, #12]
    25d4:	69db      	ldr	r3, [r3, #28]
    25d6:	f403 2300 	and.w	r3, r3, #524288	; 0x80000
    25da:	2b00      	cmp	r3, #0
    25dc:	d008      	beq.n	25f0 <TEE_GetOperationInfoMultiple+0x88>
/home/hrl/optee/optee_os/lib/libutee/tee_api_operations.c:432
    25de:	6cfb      	ldr	r3, [r7, #76]	; 0x4c
    25e0:	2b02      	cmp	r3, #2
    25e2:	d005      	beq.n	25f0 <TEE_GetOperationInfoMultiple+0x88>
/home/hrl/optee/optee_os/lib/libutee/tee_api_operations.c:434
    25e4:	f04f 0310 	mov.w	r3, #16
    25e8:	f6cf 73ff 	movt	r3, #65535	; 0xffff
    25ec:	657b      	str	r3, [r7, #84]	; 0x54
/home/hrl/optee/optee_os/lib/libutee/tee_api_operations.c:435
    25ee:	e078      	b.n	26e2 <TEE_GetOperationInfoMultiple+0x17a>
/home/hrl/optee/optee_os/lib/libutee/tee_api_operations.c:439
    25f0:	f04f 0300 	mov.w	r3, #0
    25f4:	653b      	str	r3, [r7, #80]	; 0x50
    25f6:	e015      	b.n	2624 <TEE_GetOperationInfoMultiple+0xbc>
/home/hrl/optee/optee_os/lib/libutee/tee_api_operations.c:440 (discriminator 3)
    25f8:	68bb      	ldr	r3, [r7, #8]
    25fa:	6d3a      	ldr	r2, [r7, #80]	; 0x50
    25fc:	f102 0204 	add.w	r2, r2, #4
    2600:	f04f 0100 	mov.w	r1, #0
    2604:	f843 1032 	str.w	r1, [r3, r2, lsl #3]
/home/hrl/optee/optee_os/lib/libutee/tee_api_operations.c:441 (discriminator 3)
    2608:	68ba      	ldr	r2, [r7, #8]
    260a:	6d3b      	ldr	r3, [r7, #80]	; 0x50
    260c:	f103 0304 	add.w	r3, r3, #4
    2610:	ea4f 03c3 	mov.w	r3, r3, lsl #3
    2614:	4413      	add	r3, r2
    2616:	f04f 0200 	mov.w	r2, #0
    261a:	605a      	str	r2, [r3, #4]
/home/hrl/optee/optee_os/lib/libutee/tee_api_operations.c:439 (discriminator 3)
    261c:	6d3b      	ldr	r3, [r7, #80]	; 0x50
    261e:	f103 0301 	add.w	r3, r3, #1
    2622:	653b      	str	r3, [r7, #80]	; 0x50
/home/hrl/optee/optee_os/lib/libutee/tee_api_operations.c:439 (discriminator 1)
    2624:	6d3a      	ldr	r2, [r7, #80]	; 0x50
    2626:	6cfb      	ldr	r3, [r7, #76]	; 0x4c
    2628:	429a      	cmp	r2, r3
    262a:	d3e5      	bcc.n	25f8 <TEE_GetOperationInfoMultiple+0x90>
/home/hrl/optee/optee_os/lib/libutee/tee_api_operations.c:444
    262c:	6cfb      	ldr	r3, [r7, #76]	; 0x4c
    262e:	2b02      	cmp	r3, #2
    2630:	d112      	bne.n	2658 <TEE_GetOperationInfoMultiple+0xf0>
/home/hrl/optee/optee_os/lib/libutee/tee_api_operations.c:445
    2632:	68fb      	ldr	r3, [r7, #12]
    2634:	6a5b      	ldr	r3, [r3, #36]	; 0x24
    2636:	f107 0214 	add.w	r2, r7, #20
    263a:	4611      	mov	r1, r2
    263c:	4618      	mov	r0, r3
    263e:	f008 fa31 	bl	aaa4 <TEE_GetObjectInfo1>
    2642:	6578      	str	r0, [r7, #84]	; 0x54
/home/hrl/optee/optee_os/lib/libutee/tee_api_operations.c:447
    2644:	6d7b      	ldr	r3, [r7, #84]	; 0x54
    2646:	2b00      	cmp	r3, #0
    2648:	d148      	bne.n	26dc <TEE_GetOperationInfoMultiple+0x174>
/home/hrl/optee/optee_os/lib/libutee/tee_api_operations.c:451
    264a:	69ba      	ldr	r2, [r7, #24]
/home/hrl/optee/optee_os/lib/libutee/tee_api_operations.c:450
    264c:	68bb      	ldr	r3, [r7, #8]
    264e:	629a      	str	r2, [r3, #40]	; 0x28
/home/hrl/optee/optee_os/lib/libutee/tee_api_operations.c:453
    2650:	68fb      	ldr	r3, [r7, #12]
    2652:	699a      	ldr	r2, [r3, #24]
/home/hrl/optee/optee_os/lib/libutee/tee_api_operations.c:452
    2654:	68bb      	ldr	r3, [r7, #8]
    2656:	62da      	str	r2, [r3, #44]	; 0x2c
/home/hrl/optee/optee_os/lib/libutee/tee_api_operations.c:456
    2658:	6cfb      	ldr	r3, [r7, #76]	; 0x4c
    265a:	2b00      	cmp	r3, #0
    265c:	d01e      	beq.n	269c <TEE_GetOperationInfoMultiple+0x134>
/home/hrl/optee/optee_os/lib/libutee/tee_api_operations.c:457
    265e:	68fb      	ldr	r3, [r7, #12]
    2660:	6a1b      	ldr	r3, [r3, #32]
    2662:	f107 0230 	add.w	r2, r7, #48	; 0x30
    2666:	4611      	mov	r1, r2
    2668:	4618      	mov	r0, r3
    266a:	f008 fa1b 	bl	aaa4 <TEE_GetObjectInfo1>
    266e:	6578      	str	r0, [r7, #84]	; 0x54
/home/hrl/optee/optee_os/lib/libutee/tee_api_operations.c:459
    2670:	6d7b      	ldr	r3, [r7, #84]	; 0x54
    2672:	2b00      	cmp	r3, #0
    2674:	d00b      	beq.n	268e <TEE_GetOperationInfoMultiple+0x126>
/home/hrl/optee/optee_os/lib/libutee/tee_api_operations.c:460
    2676:	6cfb      	ldr	r3, [r7, #76]	; 0x4c
    2678:	2b02      	cmp	r3, #2
    267a:	d131      	bne.n	26e0 <TEE_GetOperationInfoMultiple+0x178>
/home/hrl/optee/optee_os/lib/libutee/tee_api_operations.c:462
    267c:	68bb      	ldr	r3, [r7, #8]
    267e:	f04f 0200 	mov.w	r2, #0
    2682:	629a      	str	r2, [r3, #40]	; 0x28
/home/hrl/optee/optee_os/lib/libutee/tee_api_operations.c:464
    2684:	68bb      	ldr	r3, [r7, #8]
    2686:	f04f 0200 	mov.w	r2, #0
    268a:	62da      	str	r2, [r3, #44]	; 0x2c
/home/hrl/optee/optee_os/lib/libutee/tee_api_operations.c:466
    268c:	e028      	b.n	26e0 <TEE_GetOperationInfoMultiple+0x178>
/home/hrl/optee/optee_os/lib/libutee/tee_api_operations.c:470
    268e:	6b7a      	ldr	r2, [r7, #52]	; 0x34
/home/hrl/optee/optee_os/lib/libutee/tee_api_operations.c:469
    2690:	68bb      	ldr	r3, [r7, #8]
    2692:	621a      	str	r2, [r3, #32]
/home/hrl/optee/optee_os/lib/libutee/tee_api_operations.c:472
    2694:	68fb      	ldr	r3, [r7, #12]
    2696:	699a      	ldr	r2, [r3, #24]
/home/hrl/optee/optee_os/lib/libutee/tee_api_operations.c:471
    2698:	68bb      	ldr	r3, [r7, #8]
    269a:	625a      	str	r2, [r3, #36]	; 0x24
/home/hrl/optee/optee_os/lib/libutee/tee_api_operations.c:476
    269c:	68fb      	ldr	r3, [r7, #12]
    269e:	681a      	ldr	r2, [r3, #0]
    26a0:	68bb      	ldr	r3, [r7, #8]
    26a2:	601a      	str	r2, [r3, #0]
/home/hrl/optee/optee_os/lib/libutee/tee_api_operations.c:477
    26a4:	68fb      	ldr	r3, [r7, #12]
    26a6:	685a      	ldr	r2, [r3, #4]
    26a8:	68bb      	ldr	r3, [r7, #8]
    26aa:	605a      	str	r2, [r3, #4]
/home/hrl/optee/optee_os/lib/libutee/tee_api_operations.c:478
    26ac:	68fb      	ldr	r3, [r7, #12]
    26ae:	689a      	ldr	r2, [r3, #8]
    26b0:	68bb      	ldr	r3, [r7, #8]
    26b2:	609a      	str	r2, [r3, #8]
/home/hrl/optee/optee_os/lib/libutee/tee_api_operations.c:479
    26b4:	68fb      	ldr	r3, [r7, #12]
    26b6:	68da      	ldr	r2, [r3, #12]
    26b8:	68bb      	ldr	r3, [r7, #8]
    26ba:	60da      	str	r2, [r3, #12]
/home/hrl/optee/optee_os/lib/libutee/tee_api_operations.c:480
    26bc:	68fb      	ldr	r3, [r7, #12]
    26be:	691a      	ldr	r2, [r3, #16]
    26c0:	68bb      	ldr	r3, [r7, #8]
    26c2:	611a      	str	r2, [r3, #16]
/home/hrl/optee/optee_os/lib/libutee/tee_api_operations.c:481
    26c4:	68fb      	ldr	r3, [r7, #12]
    26c6:	69da      	ldr	r2, [r3, #28]
    26c8:	68bb      	ldr	r3, [r7, #8]
    26ca:	615a      	str	r2, [r3, #20]
/home/hrl/optee/optee_os/lib/libutee/tee_api_operations.c:482
    26cc:	68fb      	ldr	r3, [r7, #12]
    26ce:	6a9a      	ldr	r2, [r3, #40]	; 0x28
    26d0:	68bb      	ldr	r3, [r7, #8]
    26d2:	619a      	str	r2, [r3, #24]
/home/hrl/optee/optee_os/lib/libutee/tee_api_operations.c:483
    26d4:	68bb      	ldr	r3, [r7, #8]
    26d6:	6cfa      	ldr	r2, [r7, #76]	; 0x4c
    26d8:	61da      	str	r2, [r3, #28]
    26da:	e002      	b.n	26e2 <TEE_GetOperationInfoMultiple+0x17a>
/home/hrl/optee/optee_os/lib/libutee/tee_api_operations.c:448
    26dc:	bf00      	nop
    26de:	e000      	b.n	26e2 <TEE_GetOperationInfoMultiple+0x17a>
/home/hrl/optee/optee_os/lib/libutee/tee_api_operations.c:466
    26e0:	bf00      	nop
/home/hrl/optee/optee_os/lib/libutee/tee_api_operations.c:486
    26e2:	6d7b      	ldr	r3, [r7, #84]	; 0x54
    26e4:	2b00      	cmp	r3, #0
    26e6:	d009      	beq.n	26fc <TEE_GetOperationInfoMultiple+0x194>
/home/hrl/optee/optee_os/lib/libutee/tee_api_operations.c:486 (discriminator 1)
    26e8:	6d7a      	ldr	r2, [r7, #84]	; 0x54
    26ea:	f04f 0310 	mov.w	r3, #16
    26ee:	f6cf 73ff 	movt	r3, #65535	; 0xffff
    26f2:	429a      	cmp	r2, r3
    26f4:	d002      	beq.n	26fc <TEE_GetOperationInfoMultiple+0x194>
/home/hrl/optee/optee_os/lib/libutee/tee_api_operations.c:488
    26f6:	6d78      	ldr	r0, [r7, #84]	; 0x54
    26f8:	f009 f91e 	bl	b938 <TEE_Panic>
/home/hrl/optee/optee_os/lib/libutee/tee_api_operations.c:490
    26fc:	6d7b      	ldr	r3, [r7, #84]	; 0x54
/home/hrl/optee/optee_os/lib/libutee/tee_api_operations.c:491
    26fe:	4618      	mov	r0, r3
    2700:	f107 0758 	add.w	r7, r7, #88	; 0x58
    2704:	46bd      	mov	sp, r7
    2706:	bd80      	pop	{r7, pc}

00002708 <TEE_ResetOperation>:
TEE_ResetOperation():
/home/hrl/optee/optee_os/lib/libutee/tee_api_operations.c:494
    2708:	e96d 7e02 	strd	r7, lr, [sp, #-8]!
    270c:	b084      	sub	sp, #16
    270e:	af00      	add	r7, sp, #0
    2710:	6078      	str	r0, [r7, #4]
/home/hrl/optee/optee_os/lib/libutee/tee_api_operations.c:497
    2712:	687b      	ldr	r3, [r7, #4]
    2714:	2b00      	cmp	r3, #0
    2716:	d103      	bne.n	2720 <TEE_ResetOperation+0x18>
/home/hrl/optee/optee_os/lib/libutee/tee_api_operations.c:498
    2718:	f04f 0000 	mov.w	r0, #0
    271c:	f009 f90c 	bl	b938 <TEE_Panic>
/home/hrl/optee/optee_os/lib/libutee/tee_api_operations.c:500
    2720:	687b      	ldr	r3, [r7, #4]
    2722:	69db      	ldr	r3, [r3, #28]
    2724:	f403 2380 	and.w	r3, r3, #262144	; 0x40000
    2728:	2b00      	cmp	r3, #0
    272a:	d103      	bne.n	2734 <TEE_ResetOperation+0x2c>
/home/hrl/optee/optee_os/lib/libutee/tee_api_operations.c:501
    272c:	f04f 0000 	mov.w	r0, #0
    2730:	f009 f902 	bl	b938 <TEE_Panic>
/home/hrl/optee/optee_os/lib/libutee/tee_api_operations.c:503
    2734:	687b      	ldr	r3, [r7, #4]
    2736:	f04f 0200 	mov.w	r2, #0
    273a:	629a      	str	r2, [r3, #40]	; 0x28
/home/hrl/optee/optee_os/lib/libutee/tee_api_operations.c:505
    273c:	687b      	ldr	r3, [r7, #4]
    273e:	685b      	ldr	r3, [r3, #4]
    2740:	2b05      	cmp	r3, #5
    2742:	d116      	bne.n	2772 <TEE_ResetOperation+0x6a>
/home/hrl/optee/optee_os/lib/libutee/tee_api_operations.c:506
    2744:	687b      	ldr	r3, [r7, #4]
    2746:	6bdb      	ldr	r3, [r3, #60]	; 0x3c
    2748:	f04f 0200 	mov.w	r2, #0
    274c:	f04f 0100 	mov.w	r1, #0
    2750:	4618      	mov	r0, r3
    2752:	f002 ea80 	blx	4c54 <utee_hash_init>
    2756:	60f8      	str	r0, [r7, #12]
/home/hrl/optee/optee_os/lib/libutee/tee_api_operations.c:507
    2758:	68fb      	ldr	r3, [r7, #12]
    275a:	2b00      	cmp	r3, #0
    275c:	d002      	beq.n	2764 <TEE_ResetOperation+0x5c>
/home/hrl/optee/optee_os/lib/libutee/tee_api_operations.c:508
    275e:	68f8      	ldr	r0, [r7, #12]
    2760:	f009 f8ea 	bl	b938 <TEE_Panic>
/home/hrl/optee/optee_os/lib/libutee/tee_api_operations.c:509
    2764:	687b      	ldr	r3, [r7, #4]
    2766:	69db      	ldr	r3, [r3, #28]
    2768:	f443 3200 	orr.w	r2, r3, #131072	; 0x20000
    276c:	687b      	ldr	r3, [r7, #4]
    276e:	61da      	str	r2, [r3, #28]
/home/hrl/optee/optee_os/lib/libutee/tee_api_operations.c:513
    2770:	e005      	b.n	277e <TEE_ResetOperation+0x76>
/home/hrl/optee/optee_os/lib/libutee/tee_api_operations.c:511
    2772:	687b      	ldr	r3, [r7, #4]
    2774:	69db      	ldr	r3, [r3, #28]
    2776:	f423 3200 	bic.w	r2, r3, #131072	; 0x20000
    277a:	687b      	ldr	r3, [r7, #4]
    277c:	61da      	str	r2, [r3, #28]
/home/hrl/optee/optee_os/lib/libutee/tee_api_operations.c:513
    277e:	bf00      	nop
    2780:	f107 0710 	add.w	r7, r7, #16
    2784:	46bd      	mov	sp, r7
    2786:	bd80      	pop	{r7, pc}

00002788 <TEE_SetOperationKey>:
TEE_SetOperationKey():
/home/hrl/optee/optee_os/lib/libutee/tee_api_operations.c:517
    2788:	e96d 7e02 	strd	r7, lr, [sp, #-8]!
    278c:	b08c      	sub	sp, #48	; 0x30
    278e:	af00      	add	r7, sp, #0
    2790:	6078      	str	r0, [r7, #4]
    2792:	6039      	str	r1, [r7, #0]
/home/hrl/optee/optee_os/lib/libutee/tee_api_operations.c:519
    2794:	f04f 0300 	mov.w	r3, #0
    2798:	62bb      	str	r3, [r7, #40]	; 0x28
/home/hrl/optee/optee_os/lib/libutee/tee_api_operations.c:522
    279a:	687b      	ldr	r3, [r7, #4]
    279c:	2b00      	cmp	r3, #0
    279e:	d105      	bne.n	27ac <TEE_SetOperationKey+0x24>
/home/hrl/optee/optee_os/lib/libutee/tee_api_operations.c:523
    27a0:	f04f 0306 	mov.w	r3, #6
    27a4:	f6cf 73ff 	movt	r3, #65535	; 0xffff
    27a8:	62fb      	str	r3, [r7, #44]	; 0x2c
/home/hrl/optee/optee_os/lib/libutee/tee_api_operations.c:524
    27aa:	e075      	b.n	2898 <TEE_SetOperationKey+0x110>
/home/hrl/optee/optee_os/lib/libutee/tee_api_operations.c:527
    27ac:	687b      	ldr	r3, [r7, #4]
    27ae:	6a9b      	ldr	r3, [r3, #40]	; 0x28
    27b0:	2b00      	cmp	r3, #0
    27b2:	d005      	beq.n	27c0 <TEE_SetOperationKey+0x38>
/home/hrl/optee/optee_os/lib/libutee/tee_api_operations.c:528
    27b4:	f04f 0306 	mov.w	r3, #6
    27b8:	f6cf 73ff 	movt	r3, #65535	; 0xffff
    27bc:	62fb      	str	r3, [r7, #44]	; 0x2c
/home/hrl/optee/optee_os/lib/libutee/tee_api_operations.c:529
    27be:	e06b      	b.n	2898 <TEE_SetOperationKey+0x110>
/home/hrl/optee/optee_os/lib/libutee/tee_api_operations.c:532
    27c0:	683b      	ldr	r3, [r7, #0]
    27c2:	2b00      	cmp	r3, #0
    27c4:	d10a      	bne.n	27dc <TEE_SetOperationKey+0x54>
/home/hrl/optee/optee_os/lib/libutee/tee_api_operations.c:534
    27c6:	687b      	ldr	r3, [r7, #4]
    27c8:	6a1b      	ldr	r3, [r3, #32]
    27ca:	4618      	mov	r0, r3
    27cc:	f008 fb25 	bl	ae1a <TEE_ResetTransientObject>
/home/hrl/optee/optee_os/lib/libutee/tee_api_operations.c:535
    27d0:	f04f 0306 	mov.w	r3, #6
    27d4:	f6cf 73ff 	movt	r3, #65535	; 0xffff
    27d8:	62fb      	str	r3, [r7, #44]	; 0x2c
/home/hrl/optee/optee_os/lib/libutee/tee_api_operations.c:536
    27da:	e05d      	b.n	2898 <TEE_SetOperationKey+0x110>
/home/hrl/optee/optee_os/lib/libutee/tee_api_operations.c:540
    27dc:	687b      	ldr	r3, [r7, #4]
    27de:	685b      	ldr	r3, [r3, #4]
    27e0:	2b05      	cmp	r3, #5
    27e2:	d105      	bne.n	27f0 <TEE_SetOperationKey+0x68>
/home/hrl/optee/optee_os/lib/libutee/tee_api_operations.c:541
    27e4:	f04f 0306 	mov.w	r3, #6
    27e8:	f6cf 73ff 	movt	r3, #65535	; 0xffff
    27ec:	62fb      	str	r3, [r7, #44]	; 0x2c
/home/hrl/optee/optee_os/lib/libutee/tee_api_operations.c:542
    27ee:	e053      	b.n	2898 <TEE_SetOperationKey+0x110>
/home/hrl/optee/optee_os/lib/libutee/tee_api_operations.c:546
    27f0:	687b      	ldr	r3, [r7, #4]
    27f2:	69db      	ldr	r3, [r3, #28]
    27f4:	f403 2300 	and.w	r3, r3, #524288	; 0x80000
    27f8:	2b00      	cmp	r3, #0
    27fa:	d005      	beq.n	2808 <TEE_SetOperationKey+0x80>
/home/hrl/optee/optee_os/lib/libutee/tee_api_operations.c:548
    27fc:	f04f 0306 	mov.w	r3, #6
    2800:	f6cf 73ff 	movt	r3, #65535	; 0xffff
    2804:	62fb      	str	r3, [r7, #44]	; 0x2c
/home/hrl/optee/optee_os/lib/libutee/tee_api_operations.c:549
    2806:	e047      	b.n	2898 <TEE_SetOperationKey+0x110>
/home/hrl/optee/optee_os/lib/libutee/tee_api_operations.c:552
    2808:	f107 030c 	add.w	r3, r7, #12
    280c:	4619      	mov	r1, r3
    280e:	6838      	ldr	r0, [r7, #0]
    2810:	f008 f948 	bl	aaa4 <TEE_GetObjectInfo1>
    2814:	62f8      	str	r0, [r7, #44]	; 0x2c
/home/hrl/optee/optee_os/lib/libutee/tee_api_operations.c:554
    2816:	6afb      	ldr	r3, [r7, #44]	; 0x2c
    2818:	2b00      	cmp	r3, #0
    281a:	d13a      	bne.n	2892 <TEE_SetOperationKey+0x10a>
/home/hrl/optee/optee_os/lib/libutee/tee_api_operations.c:558
    281c:	69ba      	ldr	r2, [r7, #24]
    281e:	687b      	ldr	r3, [r7, #4]
    2820:	699b      	ldr	r3, [r3, #24]
    2822:	ea02 0203 	and.w	r2, r2, r3
/home/hrl/optee/optee_os/lib/libutee/tee_api_operations.c:559
    2826:	687b      	ldr	r3, [r7, #4]
    2828:	699b      	ldr	r3, [r3, #24]
/home/hrl/optee/optee_os/lib/libutee/tee_api_operations.c:558
    282a:	429a      	cmp	r2, r3
    282c:	d005      	beq.n	283a <TEE_SetOperationKey+0xb2>
/home/hrl/optee/optee_os/lib/libutee/tee_api_operations.c:560
    282e:	f04f 0306 	mov.w	r3, #6
    2832:	f6cf 73ff 	movt	r3, #65535	; 0xffff
    2836:	62fb      	str	r3, [r7, #44]	; 0x2c
/home/hrl/optee/optee_os/lib/libutee/tee_api_operations.c:561
    2838:	e02e      	b.n	2898 <TEE_SetOperationKey+0x110>
/home/hrl/optee/optee_os/lib/libutee/tee_api_operations.c:564
    283a:	687b      	ldr	r3, [r7, #4]
    283c:	691a      	ldr	r2, [r3, #16]
    283e:	693b      	ldr	r3, [r7, #16]
    2840:	429a      	cmp	r2, r3
    2842:	d205      	bcs.n	2850 <TEE_SetOperationKey+0xc8>
/home/hrl/optee/optee_os/lib/libutee/tee_api_operations.c:565
    2844:	f04f 0306 	mov.w	r3, #6
    2848:	f6cf 73ff 	movt	r3, #65535	; 0xffff
    284c:	62fb      	str	r3, [r7, #44]	; 0x2c
/home/hrl/optee/optee_os/lib/libutee/tee_api_operations.c:566
    284e:	e023      	b.n	2898 <TEE_SetOperationKey+0x110>
/home/hrl/optee/optee_os/lib/libutee/tee_api_operations.c:569
    2850:	693b      	ldr	r3, [r7, #16]
    2852:	62bb      	str	r3, [r7, #40]	; 0x28
/home/hrl/optee/optee_os/lib/libutee/tee_api_operations.c:571
    2854:	687b      	ldr	r3, [r7, #4]
    2856:	6a1b      	ldr	r3, [r3, #32]
    2858:	4618      	mov	r0, r3
    285a:	f008 fade 	bl	ae1a <TEE_ResetTransientObject>
/home/hrl/optee/optee_os/lib/libutee/tee_api_operations.c:572
    285e:	687b      	ldr	r3, [r7, #4]
    2860:	69db      	ldr	r3, [r3, #28]
    2862:	f423 2280 	bic.w	r2, r3, #262144	; 0x40000
    2866:	687b      	ldr	r3, [r7, #4]
    2868:	61da      	str	r2, [r3, #28]
/home/hrl/optee/optee_os/lib/libutee/tee_api_operations.c:574
    286a:	687b      	ldr	r3, [r7, #4]
    286c:	6a1b      	ldr	r3, [r3, #32]
    286e:	6839      	ldr	r1, [r7, #0]
    2870:	4618      	mov	r0, r3
    2872:	f008 fc0b 	bl	b08c <TEE_CopyObjectAttributes1>
    2876:	62f8      	str	r0, [r7, #44]	; 0x2c
/home/hrl/optee/optee_os/lib/libutee/tee_api_operations.c:575
    2878:	6afb      	ldr	r3, [r7, #44]	; 0x2c
    287a:	2b00      	cmp	r3, #0
    287c:	d10b      	bne.n	2896 <TEE_SetOperationKey+0x10e>
/home/hrl/optee/optee_os/lib/libutee/tee_api_operations.c:578
    287e:	687b      	ldr	r3, [r7, #4]
    2880:	69db      	ldr	r3, [r3, #28]
    2882:	f443 2280 	orr.w	r2, r3, #262144	; 0x40000
    2886:	687b      	ldr	r3, [r7, #4]
    2888:	61da      	str	r2, [r3, #28]
/home/hrl/optee/optee_os/lib/libutee/tee_api_operations.c:580
    288a:	687b      	ldr	r3, [r7, #4]
    288c:	6aba      	ldr	r2, [r7, #40]	; 0x28
    288e:	615a      	str	r2, [r3, #20]
    2890:	e002      	b.n	2898 <TEE_SetOperationKey+0x110>
/home/hrl/optee/optee_os/lib/libutee/tee_api_operations.c:555
    2892:	bf00      	nop
    2894:	e000      	b.n	2898 <TEE_SetOperationKey+0x110>
/home/hrl/optee/optee_os/lib/libutee/tee_api_operations.c:576
    2896:	bf00      	nop
/home/hrl/optee/optee_os/lib/libutee/tee_api_operations.c:583
    2898:	6afb      	ldr	r3, [r7, #44]	; 0x2c
    289a:	2b00      	cmp	r3, #0
    289c:	d010      	beq.n	28c0 <TEE_SetOperationKey+0x138>
/home/hrl/optee/optee_os/lib/libutee/tee_api_operations.c:583 (discriminator 1)
    289e:	6afa      	ldr	r2, [r7, #44]	; 0x2c
    28a0:	f04f 0301 	mov.w	r3, #1
    28a4:	f2cf 0310 	movt	r3, #61456	; 0xf010
    28a8:	429a      	cmp	r2, r3
    28aa:	d009      	beq.n	28c0 <TEE_SetOperationKey+0x138>
/home/hrl/optee/optee_os/lib/libutee/tee_api_operations.c:584
    28ac:	6afa      	ldr	r2, [r7, #44]	; 0x2c
    28ae:	f04f 0303 	mov.w	r3, #3
    28b2:	f2cf 0310 	movt	r3, #61456	; 0xf010
    28b6:	429a      	cmp	r2, r3
    28b8:	d002      	beq.n	28c0 <TEE_SetOperationKey+0x138>
/home/hrl/optee/optee_os/lib/libutee/tee_api_operations.c:586
    28ba:	6af8      	ldr	r0, [r7, #44]	; 0x2c
    28bc:	f009 f83c 	bl	b938 <TEE_Panic>
/home/hrl/optee/optee_os/lib/libutee/tee_api_operations.c:588
    28c0:	6afb      	ldr	r3, [r7, #44]	; 0x2c
/home/hrl/optee/optee_os/lib/libutee/tee_api_operations.c:589
    28c2:	4618      	mov	r0, r3
    28c4:	f107 0730 	add.w	r7, r7, #48	; 0x30
    28c8:	46bd      	mov	sp, r7
    28ca:	bd80      	pop	{r7, pc}

000028cc <TEE_SetOperationKey2>:
TEE_SetOperationKey2():
/home/hrl/optee/optee_os/lib/libutee/tee_api_operations.c:593
    28cc:	e96d 7e02 	strd	r7, lr, [sp, #-8]!
    28d0:	b094      	sub	sp, #80	; 0x50
    28d2:	af00      	add	r7, sp, #0
    28d4:	60f8      	str	r0, [r7, #12]
    28d6:	60b9      	str	r1, [r7, #8]
    28d8:	607a      	str	r2, [r7, #4]
/home/hrl/optee/optee_os/lib/libutee/tee_api_operations.c:595
    28da:	f04f 0300 	mov.w	r3, #0
    28de:	64bb      	str	r3, [r7, #72]	; 0x48
/home/hrl/optee/optee_os/lib/libutee/tee_api_operations.c:599
    28e0:	68fb      	ldr	r3, [r7, #12]
    28e2:	2b00      	cmp	r3, #0
    28e4:	d105      	bne.n	28f2 <TEE_SetOperationKey2+0x26>
/home/hrl/optee/optee_os/lib/libutee/tee_api_operations.c:600
    28e6:	f04f 0306 	mov.w	r3, #6
    28ea:	f6cf 73ff 	movt	r3, #65535	; 0xffff
    28ee:	64fb      	str	r3, [r7, #76]	; 0x4c
/home/hrl/optee/optee_os/lib/libutee/tee_api_operations.c:601
    28f0:	e0dc      	b.n	2aac <TEE_SetOperationKey2+0x1e0>
/home/hrl/optee/optee_os/lib/libutee/tee_api_operations.c:604
    28f2:	68fb      	ldr	r3, [r7, #12]
    28f4:	6a9b      	ldr	r3, [r3, #40]	; 0x28
    28f6:	2b00      	cmp	r3, #0
    28f8:	d005      	beq.n	2906 <TEE_SetOperationKey2+0x3a>
/home/hrl/optee/optee_os/lib/libutee/tee_api_operations.c:605
    28fa:	f04f 0306 	mov.w	r3, #6
    28fe:	f6cf 73ff 	movt	r3, #65535	; 0xffff
    2902:	64fb      	str	r3, [r7, #76]	; 0x4c
/home/hrl/optee/optee_os/lib/libutee/tee_api_operations.c:606
    2904:	e0d2      	b.n	2aac <TEE_SetOperationKey2+0x1e0>
/home/hrl/optee/optee_os/lib/libutee/tee_api_operations.c:613
    2906:	68bb      	ldr	r3, [r7, #8]
    2908:	2b00      	cmp	r3, #0
    290a:	d002      	beq.n	2912 <TEE_SetOperationKey2+0x46>
/home/hrl/optee/optee_os/lib/libutee/tee_api_operations.c:613 (discriminator 1)
    290c:	687b      	ldr	r3, [r7, #4]
    290e:	2b00      	cmp	r3, #0
    2910:	d115      	bne.n	293e <TEE_SetOperationKey2+0x72>
/home/hrl/optee/optee_os/lib/libutee/tee_api_operations.c:615
    2912:	68bb      	ldr	r3, [r7, #8]
    2914:	2b00      	cmp	r3, #0
    2916:	d104      	bne.n	2922 <TEE_SetOperationKey2+0x56>
/home/hrl/optee/optee_os/lib/libutee/tee_api_operations.c:616
    2918:	68fb      	ldr	r3, [r7, #12]
    291a:	6a1b      	ldr	r3, [r3, #32]
    291c:	4618      	mov	r0, r3
    291e:	f008 fa7c 	bl	ae1a <TEE_ResetTransientObject>
/home/hrl/optee/optee_os/lib/libutee/tee_api_operations.c:618
    2922:	687b      	ldr	r3, [r7, #4]
    2924:	2b00      	cmp	r3, #0
    2926:	d104      	bne.n	2932 <TEE_SetOperationKey2+0x66>
/home/hrl/optee/optee_os/lib/libutee/tee_api_operations.c:619
    2928:	68fb      	ldr	r3, [r7, #12]
    292a:	6a5b      	ldr	r3, [r3, #36]	; 0x24
    292c:	4618      	mov	r0, r3
    292e:	f008 fa74 	bl	ae1a <TEE_ResetTransientObject>
/home/hrl/optee/optee_os/lib/libutee/tee_api_operations.c:620
    2932:	f04f 0306 	mov.w	r3, #6
    2936:	f6cf 73ff 	movt	r3, #65535	; 0xffff
    293a:	64fb      	str	r3, [r7, #76]	; 0x4c
/home/hrl/optee/optee_os/lib/libutee/tee_api_operations.c:621
    293c:	e0b6      	b.n	2aac <TEE_SetOperationKey2+0x1e0>
/home/hrl/optee/optee_os/lib/libutee/tee_api_operations.c:625
    293e:	68fb      	ldr	r3, [r7, #12]
    2940:	685b      	ldr	r3, [r3, #4]
    2942:	2b05      	cmp	r3, #5
    2944:	d105      	bne.n	2952 <TEE_SetOperationKey2+0x86>
/home/hrl/optee/optee_os/lib/libutee/tee_api_operations.c:626
    2946:	f04f 0306 	mov.w	r3, #6
    294a:	f6cf 73ff 	movt	r3, #65535	; 0xffff
    294e:	64fb      	str	r3, [r7, #76]	; 0x4c
/home/hrl/optee/optee_os/lib/libutee/tee_api_operations.c:627
    2950:	e0ac      	b.n	2aac <TEE_SetOperationKey2+0x1e0>
/home/hrl/optee/optee_os/lib/libutee/tee_api_operations.c:631
    2952:	68fb      	ldr	r3, [r7, #12]
    2954:	69db      	ldr	r3, [r3, #28]
    2956:	f403 2300 	and.w	r3, r3, #524288	; 0x80000
    295a:	2b00      	cmp	r3, #0
    295c:	d105      	bne.n	296a <TEE_SetOperationKey2+0x9e>
/home/hrl/optee/optee_os/lib/libutee/tee_api_operations.c:633
    295e:	f04f 0306 	mov.w	r3, #6
    2962:	f6cf 73ff 	movt	r3, #65535	; 0xffff
    2966:	64fb      	str	r3, [r7, #76]	; 0x4c
/home/hrl/optee/optee_os/lib/libutee/tee_api_operations.c:634
    2968:	e0a0      	b.n	2aac <TEE_SetOperationKey2+0x1e0>
/home/hrl/optee/optee_os/lib/libutee/tee_api_operations.c:637
    296a:	f107 032c 	add.w	r3, r7, #44	; 0x2c
    296e:	4619      	mov	r1, r3
    2970:	68b8      	ldr	r0, [r7, #8]
    2972:	f008 f897 	bl	aaa4 <TEE_GetObjectInfo1>
    2976:	64f8      	str	r0, [r7, #76]	; 0x4c
/home/hrl/optee/optee_os/lib/libutee/tee_api_operations.c:639
    2978:	6cfb      	ldr	r3, [r7, #76]	; 0x4c
    297a:	2b00      	cmp	r3, #0
    297c:	f040 808f 	bne.w	2a9e <TEE_SetOperationKey2+0x1d2>
/home/hrl/optee/optee_os/lib/libutee/tee_api_operations.c:643
    2980:	6bba      	ldr	r2, [r7, #56]	; 0x38
    2982:	68fb      	ldr	r3, [r7, #12]
    2984:	699b      	ldr	r3, [r3, #24]
    2986:	ea02 0203 	and.w	r2, r2, r3
/home/hrl/optee/optee_os/lib/libutee/tee_api_operations.c:644
    298a:	68fb      	ldr	r3, [r7, #12]
    298c:	699b      	ldr	r3, [r3, #24]
/home/hrl/optee/optee_os/lib/libutee/tee_api_operations.c:643
    298e:	429a      	cmp	r2, r3
    2990:	d005      	beq.n	299e <TEE_SetOperationKey2+0xd2>
/home/hrl/optee/optee_os/lib/libutee/tee_api_operations.c:645
    2992:	f04f 0306 	mov.w	r3, #6
    2996:	f6cf 73ff 	movt	r3, #65535	; 0xffff
    299a:	64fb      	str	r3, [r7, #76]	; 0x4c
/home/hrl/optee/optee_os/lib/libutee/tee_api_operations.c:646
    299c:	e086      	b.n	2aac <TEE_SetOperationKey2+0x1e0>
/home/hrl/optee/optee_os/lib/libutee/tee_api_operations.c:649
    299e:	f107 0310 	add.w	r3, r7, #16
    29a2:	4619      	mov	r1, r3
    29a4:	6878      	ldr	r0, [r7, #4]
    29a6:	f008 f87d 	bl	aaa4 <TEE_GetObjectInfo1>
    29aa:	64f8      	str	r0, [r7, #76]	; 0x4c
/home/hrl/optee/optee_os/lib/libutee/tee_api_operations.c:651
    29ac:	6cfb      	ldr	r3, [r7, #76]	; 0x4c
    29ae:	2b00      	cmp	r3, #0
    29b0:	d00c      	beq.n	29cc <TEE_SetOperationKey2+0x100>
/home/hrl/optee/optee_os/lib/libutee/tee_api_operations.c:652
    29b2:	6cfa      	ldr	r2, [r7, #76]	; 0x4c
    29b4:	f04f 0301 	mov.w	r3, #1
    29b8:	f2cf 0310 	movt	r3, #61456	; 0xf010
    29bc:	429a      	cmp	r2, r3
    29be:	d170      	bne.n	2aa2 <TEE_SetOperationKey2+0x1d6>
/home/hrl/optee/optee_os/lib/libutee/tee_api_operations.c:653
    29c0:	f04f 0302 	mov.w	r3, #2
    29c4:	f2cf 0310 	movt	r3, #61456	; 0xf010
    29c8:	64fb      	str	r3, [r7, #76]	; 0x4c
/home/hrl/optee/optee_os/lib/libutee/tee_api_operations.c:654
    29ca:	e06a      	b.n	2aa2 <TEE_SetOperationKey2+0x1d6>
/home/hrl/optee/optee_os/lib/libutee/tee_api_operations.c:658
    29cc:	69fa      	ldr	r2, [r7, #28]
    29ce:	68fb      	ldr	r3, [r7, #12]
    29d0:	699b      	ldr	r3, [r3, #24]
    29d2:	ea02 0203 	and.w	r2, r2, r3
/home/hrl/optee/optee_os/lib/libutee/tee_api_operations.c:659
    29d6:	68fb      	ldr	r3, [r7, #12]
    29d8:	699b      	ldr	r3, [r3, #24]
/home/hrl/optee/optee_os/lib/libutee/tee_api_operations.c:658
    29da:	429a      	cmp	r2, r3
    29dc:	d005      	beq.n	29ea <TEE_SetOperationKey2+0x11e>
/home/hrl/optee/optee_os/lib/libutee/tee_api_operations.c:660
    29de:	f04f 0306 	mov.w	r3, #6
    29e2:	f6cf 73ff 	movt	r3, #65535	; 0xffff
    29e6:	64fb      	str	r3, [r7, #76]	; 0x4c
/home/hrl/optee/optee_os/lib/libutee/tee_api_operations.c:661
    29e8:	e060      	b.n	2aac <TEE_SetOperationKey2+0x1e0>
/home/hrl/optee/optee_os/lib/libutee/tee_api_operations.c:668
    29ea:	68fb      	ldr	r3, [r7, #12]
    29ec:	681a      	ldr	r2, [r3, #0]
    29ee:	f44f 6382 	mov.w	r3, #1040	; 0x410
    29f2:	f2c1 0300 	movt	r3, #4096	; 0x1000
    29f6:	429a      	cmp	r2, r3
    29f8:	d109      	bne.n	2a0e <TEE_SetOperationKey2+0x142>
/home/hrl/optee/optee_os/lib/libutee/tee_api_operations.c:669 (discriminator 1)
    29fa:	6b3a      	ldr	r2, [r7, #48]	; 0x30
    29fc:	697b      	ldr	r3, [r7, #20]
/home/hrl/optee/optee_os/lib/libutee/tee_api_operations.c:668 (discriminator 1)
    29fe:	429a      	cmp	r2, r3
    2a00:	d005      	beq.n	2a0e <TEE_SetOperationKey2+0x142>
/home/hrl/optee/optee_os/lib/libutee/tee_api_operations.c:670
    2a02:	f04f 0306 	mov.w	r3, #6
    2a06:	f6cf 73ff 	movt	r3, #65535	; 0xffff
    2a0a:	64fb      	str	r3, [r7, #76]	; 0x4c
/home/hrl/optee/optee_os/lib/libutee/tee_api_operations.c:671
    2a0c:	e04e      	b.n	2aac <TEE_SetOperationKey2+0x1e0>
/home/hrl/optee/optee_os/lib/libutee/tee_api_operations.c:675
    2a0e:	68fb      	ldr	r3, [r7, #12]
    2a10:	691a      	ldr	r2, [r3, #16]
    2a12:	6b3b      	ldr	r3, [r7, #48]	; 0x30
    2a14:	429a      	cmp	r2, r3
    2a16:	d205      	bcs.n	2a24 <TEE_SetOperationKey2+0x158>
/home/hrl/optee/optee_os/lib/libutee/tee_api_operations.c:676
    2a18:	f04f 0306 	mov.w	r3, #6
    2a1c:	f6cf 73ff 	movt	r3, #65535	; 0xffff
    2a20:	64fb      	str	r3, [r7, #76]	; 0x4c
/home/hrl/optee/optee_os/lib/libutee/tee_api_operations.c:677
    2a22:	e043      	b.n	2aac <TEE_SetOperationKey2+0x1e0>
/home/hrl/optee/optee_os/lib/libutee/tee_api_operations.c:684
    2a24:	6b3b      	ldr	r3, [r7, #48]	; 0x30
    2a26:	64bb      	str	r3, [r7, #72]	; 0x48
/home/hrl/optee/optee_os/lib/libutee/tee_api_operations.c:686
    2a28:	68fb      	ldr	r3, [r7, #12]
    2a2a:	6a1b      	ldr	r3, [r3, #32]
    2a2c:	4618      	mov	r0, r3
    2a2e:	f008 f9f4 	bl	ae1a <TEE_ResetTransientObject>
/home/hrl/optee/optee_os/lib/libutee/tee_api_operations.c:687
    2a32:	68fb      	ldr	r3, [r7, #12]
    2a34:	6a5b      	ldr	r3, [r3, #36]	; 0x24
    2a36:	4618      	mov	r0, r3
    2a38:	f008 f9ef 	bl	ae1a <TEE_ResetTransientObject>
/home/hrl/optee/optee_os/lib/libutee/tee_api_operations.c:688
    2a3c:	68fb      	ldr	r3, [r7, #12]
    2a3e:	69db      	ldr	r3, [r3, #28]
    2a40:	f423 2280 	bic.w	r2, r3, #262144	; 0x40000
    2a44:	68fb      	ldr	r3, [r7, #12]
    2a46:	61da      	str	r2, [r3, #28]
/home/hrl/optee/optee_os/lib/libutee/tee_api_operations.c:690
    2a48:	68fb      	ldr	r3, [r7, #12]
    2a4a:	6a1b      	ldr	r3, [r3, #32]
    2a4c:	68b9      	ldr	r1, [r7, #8]
    2a4e:	4618      	mov	r0, r3
    2a50:	f008 fb1c 	bl	b08c <TEE_CopyObjectAttributes1>
    2a54:	64f8      	str	r0, [r7, #76]	; 0x4c
/home/hrl/optee/optee_os/lib/libutee/tee_api_operations.c:691
    2a56:	6cfb      	ldr	r3, [r7, #76]	; 0x4c
    2a58:	2b00      	cmp	r3, #0
    2a5a:	d124      	bne.n	2aa6 <TEE_SetOperationKey2+0x1da>
/home/hrl/optee/optee_os/lib/libutee/tee_api_operations.c:694
    2a5c:	68fb      	ldr	r3, [r7, #12]
    2a5e:	6a5b      	ldr	r3, [r3, #36]	; 0x24
    2a60:	6879      	ldr	r1, [r7, #4]
    2a62:	4618      	mov	r0, r3
    2a64:	f008 fb12 	bl	b08c <TEE_CopyObjectAttributes1>
    2a68:	64f8      	str	r0, [r7, #76]	; 0x4c
/home/hrl/optee/optee_os/lib/libutee/tee_api_operations.c:695
    2a6a:	6cfb      	ldr	r3, [r7, #76]	; 0x4c
    2a6c:	2b00      	cmp	r3, #0
    2a6e:	d00c      	beq.n	2a8a <TEE_SetOperationKey2+0x1be>
/home/hrl/optee/optee_os/lib/libutee/tee_api_operations.c:696
    2a70:	6cfa      	ldr	r2, [r7, #76]	; 0x4c
    2a72:	f04f 0301 	mov.w	r3, #1
    2a76:	f2cf 0310 	movt	r3, #61456	; 0xf010
    2a7a:	429a      	cmp	r2, r3
    2a7c:	d115      	bne.n	2aaa <TEE_SetOperationKey2+0x1de>
/home/hrl/optee/optee_os/lib/libutee/tee_api_operations.c:697
    2a7e:	f04f 0302 	mov.w	r3, #2
    2a82:	f2cf 0310 	movt	r3, #61456	; 0xf010
    2a86:	64fb      	str	r3, [r7, #76]	; 0x4c
/home/hrl/optee/optee_os/lib/libutee/tee_api_operations.c:698
    2a88:	e00f      	b.n	2aaa <TEE_SetOperationKey2+0x1de>
/home/hrl/optee/optee_os/lib/libutee/tee_api_operations.c:701
    2a8a:	68fb      	ldr	r3, [r7, #12]
    2a8c:	69db      	ldr	r3, [r3, #28]
    2a8e:	f443 2280 	orr.w	r2, r3, #262144	; 0x40000
    2a92:	68fb      	ldr	r3, [r7, #12]
    2a94:	61da      	str	r2, [r3, #28]
/home/hrl/optee/optee_os/lib/libutee/tee_api_operations.c:703
    2a96:	68fb      	ldr	r3, [r7, #12]
    2a98:	6cba      	ldr	r2, [r7, #72]	; 0x48
    2a9a:	615a      	str	r2, [r3, #20]
    2a9c:	e006      	b.n	2aac <TEE_SetOperationKey2+0x1e0>
/home/hrl/optee/optee_os/lib/libutee/tee_api_operations.c:640
    2a9e:	bf00      	nop
    2aa0:	e004      	b.n	2aac <TEE_SetOperationKey2+0x1e0>
/home/hrl/optee/optee_os/lib/libutee/tee_api_operations.c:654
    2aa2:	bf00      	nop
    2aa4:	e002      	b.n	2aac <TEE_SetOperationKey2+0x1e0>
/home/hrl/optee/optee_os/lib/libutee/tee_api_operations.c:692
    2aa6:	bf00      	nop
    2aa8:	e000      	b.n	2aac <TEE_SetOperationKey2+0x1e0>
/home/hrl/optee/optee_os/lib/libutee/tee_api_operations.c:698
    2aaa:	bf00      	nop
/home/hrl/optee/optee_os/lib/libutee/tee_api_operations.c:706
    2aac:	6cfb      	ldr	r3, [r7, #76]	; 0x4c
    2aae:	2b00      	cmp	r3, #0
    2ab0:	d01e      	beq.n	2af0 <TEE_SetOperationKey2+0x224>
/home/hrl/optee/optee_os/lib/libutee/tee_api_operations.c:706 (discriminator 1)
    2ab2:	6cfa      	ldr	r2, [r7, #76]	; 0x4c
    2ab4:	f04f 0301 	mov.w	r3, #1
    2ab8:	f2cf 0310 	movt	r3, #61456	; 0xf010
    2abc:	429a      	cmp	r2, r3
    2abe:	d017      	beq.n	2af0 <TEE_SetOperationKey2+0x224>
/home/hrl/optee/optee_os/lib/libutee/tee_api_operations.c:707
    2ac0:	6cfa      	ldr	r2, [r7, #76]	; 0x4c
    2ac2:	f04f 0302 	mov.w	r3, #2
    2ac6:	f2cf 0310 	movt	r3, #61456	; 0xf010
    2aca:	429a      	cmp	r2, r3
    2acc:	d010      	beq.n	2af0 <TEE_SetOperationKey2+0x224>
/home/hrl/optee/optee_os/lib/libutee/tee_api_operations.c:708
    2ace:	6cfa      	ldr	r2, [r7, #76]	; 0x4c
    2ad0:	f04f 0303 	mov.w	r3, #3
    2ad4:	f2cf 0310 	movt	r3, #61456	; 0xf010
    2ad8:	429a      	cmp	r2, r3
    2ada:	d009      	beq.n	2af0 <TEE_SetOperationKey2+0x224>
/home/hrl/optee/optee_os/lib/libutee/tee_api_operations.c:709
    2adc:	6cfa      	ldr	r2, [r7, #76]	; 0x4c
    2ade:	f04f 0304 	mov.w	r3, #4
    2ae2:	f2cf 0310 	movt	r3, #61456	; 0xf010
    2ae6:	429a      	cmp	r2, r3
    2ae8:	d002      	beq.n	2af0 <TEE_SetOperationKey2+0x224>
/home/hrl/optee/optee_os/lib/libutee/tee_api_operations.c:711
    2aea:	6cf8      	ldr	r0, [r7, #76]	; 0x4c
    2aec:	f008 ff24 	bl	b938 <TEE_Panic>
/home/hrl/optee/optee_os/lib/libutee/tee_api_operations.c:713
    2af0:	6cfb      	ldr	r3, [r7, #76]	; 0x4c
/home/hrl/optee/optee_os/lib/libutee/tee_api_operations.c:714
    2af2:	4618      	mov	r0, r3
    2af4:	f107 0750 	add.w	r7, r7, #80	; 0x50
    2af8:	46bd      	mov	sp, r7
    2afa:	bd80      	pop	{r7, pc}

00002afc <TEE_CopyOperation>:
TEE_CopyOperation():
/home/hrl/optee/optee_os/lib/libutee/tee_api_operations.c:717
    2afc:	e96d 7e02 	strd	r7, lr, [sp, #-8]!
    2b00:	b086      	sub	sp, #24
    2b02:	af00      	add	r7, sp, #0
    2b04:	6078      	str	r0, [r7, #4]
    2b06:	6039      	str	r1, [r7, #0]
/home/hrl/optee/optee_os/lib/libutee/tee_api_operations.c:720
    2b08:	687b      	ldr	r3, [r7, #4]
    2b0a:	2b00      	cmp	r3, #0
    2b0c:	d002      	beq.n	2b14 <TEE_CopyOperation+0x18>
/home/hrl/optee/optee_os/lib/libutee/tee_api_operations.c:720 (discriminator 1)
    2b0e:	683b      	ldr	r3, [r7, #0]
    2b10:	2b00      	cmp	r3, #0
    2b12:	d103      	bne.n	2b1c <TEE_CopyOperation+0x20>
/home/hrl/optee/optee_os/lib/libutee/tee_api_operations.c:721
    2b14:	f04f 0000 	mov.w	r0, #0
    2b18:	f008 ff0e 	bl	b938 <TEE_Panic>
/home/hrl/optee/optee_os/lib/libutee/tee_api_operations.c:722
    2b1c:	687b      	ldr	r3, [r7, #4]
    2b1e:	681a      	ldr	r2, [r3, #0]
    2b20:	683b      	ldr	r3, [r7, #0]
    2b22:	681b      	ldr	r3, [r3, #0]
    2b24:	429a      	cmp	r2, r3
    2b26:	d003      	beq.n	2b30 <TEE_CopyOperation+0x34>
/home/hrl/optee/optee_os/lib/libutee/tee_api_operations.c:723
    2b28:	f04f 0000 	mov.w	r0, #0
    2b2c:	f008 ff04 	bl	b938 <TEE_Panic>
/home/hrl/optee/optee_os/lib/libutee/tee_api_operations.c:724
    2b30:	683b      	ldr	r3, [r7, #0]
    2b32:	685b      	ldr	r3, [r3, #4]
    2b34:	2b05      	cmp	r3, #5
    2b36:	d021      	beq.n	2b7c <TEE_CopyOperation+0x80>
/home/hrl/optee/optee_os/lib/libutee/tee_api_operations.c:725
    2b38:	f04f 0300 	mov.w	r3, #0
    2b3c:	617b      	str	r3, [r7, #20]
/home/hrl/optee/optee_os/lib/libutee/tee_api_operations.c:726
    2b3e:	f04f 0300 	mov.w	r3, #0
    2b42:	613b      	str	r3, [r7, #16]
/home/hrl/optee/optee_os/lib/libutee/tee_api_operations.c:728
    2b44:	683b      	ldr	r3, [r7, #0]
    2b46:	69db      	ldr	r3, [r3, #28]
    2b48:	f403 2380 	and.w	r3, r3, #262144	; 0x40000
    2b4c:	2b00      	cmp	r3, #0
    2b4e:	d005      	beq.n	2b5c <TEE_CopyOperation+0x60>
/home/hrl/optee/optee_os/lib/libutee/tee_api_operations.c:729
    2b50:	683b      	ldr	r3, [r7, #0]
    2b52:	6a1b      	ldr	r3, [r3, #32]
    2b54:	617b      	str	r3, [r7, #20]
/home/hrl/optee/optee_os/lib/libutee/tee_api_operations.c:730
    2b56:	683b      	ldr	r3, [r7, #0]
    2b58:	6a5b      	ldr	r3, [r3, #36]	; 0x24
    2b5a:	613b      	str	r3, [r7, #16]
